
/bin/true:     file format elf64-x86-64


Disassembly of section .init:

0000000000002000 <.init>:
    2000:	48 83 ec 08          	sub    rsp,0x8
    2004:	48 8b 05 c5 7f 00 00 	mov    rax,QWORD PTR [rip+0x7fc5]        # 9fd0 <__gmon_start__@Base>
    200b:	48 85 c0             	test   rax,rax
    200e:	74 02                	je     2012 <free@plt-0x1e>
    2010:	ff d0                	call   rax
    2012:	48 83 c4 08          	add    rsp,0x8
    2016:	c3                   	ret

Disassembly of section .plt:

0000000000002020 <free@plt-0x10>:
    2020:	ff 35 2a 7e 00 00    	push   QWORD PTR [rip+0x7e2a]        # 9e50 <error_at_line@@Base+0x7835>
    2026:	ff 25 2c 7e 00 00    	jmp    QWORD PTR [rip+0x7e2c]        # 9e58 <error_at_line@@Base+0x783d>
    202c:	0f 1f 40 00          	nop    DWORD PTR [rax+0x0]

0000000000002030 <free@plt>:
    2030:	ff 25 2a 7e 00 00    	jmp    QWORD PTR [rip+0x7e2a]        # 9e60 <free@GLIBC_2.2.5>
    2036:	68 00 00 00 00       	push   0x0
    203b:	e9 e0 ff ff ff       	jmp    2020 <free@plt-0x10>

0000000000002040 <__vfprintf_chk@plt>:
    2040:	ff 25 22 7e 00 00    	jmp    QWORD PTR [rip+0x7e22]        # 9e68 <__vfprintf_chk@GLIBC_2.3.4>
    2046:	68 01 00 00 00       	push   0x1
    204b:	e9 d0 ff ff ff       	jmp    2020 <free@plt-0x10>

0000000000002050 <abort@plt>:
    2050:	ff 25 1a 7e 00 00    	jmp    QWORD PTR [rip+0x7e1a]        # 9e70 <abort@GLIBC_2.2.5>
    2056:	68 02 00 00 00       	push   0x2
    205b:	e9 c0 ff ff ff       	jmp    2020 <free@plt-0x10>

0000000000002060 <__errno_location@plt>:
    2060:	ff 25 12 7e 00 00    	jmp    QWORD PTR [rip+0x7e12]        # 9e78 <__errno_location@GLIBC_2.2.5>
    2066:	68 03 00 00 00       	push   0x3
    206b:	e9 b0 ff ff ff       	jmp    2020 <free@plt-0x10>

0000000000002070 <strncmp@plt>:
    2070:	ff 25 0a 7e 00 00    	jmp    QWORD PTR [rip+0x7e0a]        # 9e80 <strncmp@GLIBC_2.2.5>
    2076:	68 04 00 00 00       	push   0x4
    207b:	e9 a0 ff ff ff       	jmp    2020 <free@plt-0x10>

0000000000002080 <_exit@plt>:
    2080:	ff 25 02 7e 00 00    	jmp    QWORD PTR [rip+0x7e02]        # 9e88 <_exit@GLIBC_2.2.5>
    2086:	68 05 00 00 00       	push   0x5
    208b:	e9 90 ff ff ff       	jmp    2020 <free@plt-0x10>

0000000000002090 <__fpending@plt>:
    2090:	ff 25 fa 7d 00 00    	jmp    QWORD PTR [rip+0x7dfa]        # 9e90 <__fpending@GLIBC_2.2.5>
    2096:	68 06 00 00 00       	push   0x6
    209b:	e9 80 ff ff ff       	jmp    2020 <free@plt-0x10>

00000000000020a0 <fcntl@plt>:
    20a0:	ff 25 f2 7d 00 00    	jmp    QWORD PTR [rip+0x7df2]        # 9e98 <fcntl@GLIBC_2.2.5>
    20a6:	68 07 00 00 00       	push   0x7
    20ab:	e9 70 ff ff ff       	jmp    2020 <free@plt-0x10>

00000000000020b0 <textdomain@plt>:
    20b0:	ff 25 ea 7d 00 00    	jmp    QWORD PTR [rip+0x7dea]        # 9ea0 <textdomain@GLIBC_2.2.5>
    20b6:	68 08 00 00 00       	push   0x8
    20bb:	e9 60 ff ff ff       	jmp    2020 <free@plt-0x10>

00000000000020c0 <fclose@plt>:
    20c0:	ff 25 e2 7d 00 00    	jmp    QWORD PTR [rip+0x7de2]        # 9ea8 <fclose@GLIBC_2.2.5>
    20c6:	68 09 00 00 00       	push   0x9
    20cb:	e9 50 ff ff ff       	jmp    2020 <free@plt-0x10>

00000000000020d0 <bindtextdomain@plt>:
    20d0:	ff 25 da 7d 00 00    	jmp    QWORD PTR [rip+0x7dda]        # 9eb0 <bindtextdomain@GLIBC_2.2.5>
    20d6:	68 0a 00 00 00       	push   0xa
    20db:	e9 40 ff ff ff       	jmp    2020 <free@plt-0x10>

00000000000020e0 <dcgettext@plt>:
    20e0:	ff 25 d2 7d 00 00    	jmp    QWORD PTR [rip+0x7dd2]        # 9eb8 <dcgettext@GLIBC_2.2.5>
    20e6:	68 0b 00 00 00       	push   0xb
    20eb:	e9 30 ff ff ff       	jmp    2020 <free@plt-0x10>

00000000000020f0 <__ctype_get_mb_cur_max@plt>:
    20f0:	ff 25 ca 7d 00 00    	jmp    QWORD PTR [rip+0x7dca]        # 9ec0 <__ctype_get_mb_cur_max@GLIBC_2.2.5>
    20f6:	68 0c 00 00 00       	push   0xc
    20fb:	e9 20 ff ff ff       	jmp    2020 <free@plt-0x10>

0000000000002100 <strlen@plt>:
    2100:	ff 25 c2 7d 00 00    	jmp    QWORD PTR [rip+0x7dc2]        # 9ec8 <strlen@GLIBC_2.2.5>
    2106:	68 0d 00 00 00       	push   0xd
    210b:	e9 10 ff ff ff       	jmp    2020 <free@plt-0x10>

0000000000002110 <__stack_chk_fail@plt>:
    2110:	ff 25 ba 7d 00 00    	jmp    QWORD PTR [rip+0x7dba]        # 9ed0 <__stack_chk_fail@GLIBC_2.4>
    2116:	68 0e 00 00 00       	push   0xe
    211b:	e9 00 ff ff ff       	jmp    2020 <free@plt-0x10>

0000000000002120 <__overflow@plt>:
    2120:	ff 25 b2 7d 00 00    	jmp    QWORD PTR [rip+0x7db2]        # 9ed8 <__overflow@GLIBC_2.2.5>
    2126:	68 0f 00 00 00       	push   0xf
    212b:	e9 f0 fe ff ff       	jmp    2020 <free@plt-0x10>

0000000000002130 <strrchr@plt>:
    2130:	ff 25 aa 7d 00 00    	jmp    QWORD PTR [rip+0x7daa]        # 9ee0 <strrchr@GLIBC_2.2.5>
    2136:	68 10 00 00 00       	push   0x10
    213b:	e9 e0 fe ff ff       	jmp    2020 <free@plt-0x10>

0000000000002140 <lseek@plt>:
    2140:	ff 25 a2 7d 00 00    	jmp    QWORD PTR [rip+0x7da2]        # 9ee8 <lseek@GLIBC_2.2.5>
    2146:	68 11 00 00 00       	push   0x11
    214b:	e9 d0 fe ff ff       	jmp    2020 <free@plt-0x10>

0000000000002150 <memset@plt>:
    2150:	ff 25 9a 7d 00 00    	jmp    QWORD PTR [rip+0x7d9a]        # 9ef0 <memset@GLIBC_2.2.5>
    2156:	68 12 00 00 00       	push   0x12
    215b:	e9 c0 fe ff ff       	jmp    2020 <free@plt-0x10>

0000000000002160 <mbrtoc32@plt>:
    2160:	ff 25 92 7d 00 00    	jmp    QWORD PTR [rip+0x7d92]        # 9ef8 <mbrtoc32@GLIBC_2.16>
    2166:	68 13 00 00 00       	push   0x13
    216b:	e9 b0 fe ff ff       	jmp    2020 <free@plt-0x10>

0000000000002170 <memcmp@plt>:
    2170:	ff 25 8a 7d 00 00    	jmp    QWORD PTR [rip+0x7d8a]        # 9f00 <memcmp@GLIBC_2.2.5>
    2176:	68 14 00 00 00       	push   0x14
    217b:	e9 a0 fe ff ff       	jmp    2020 <free@plt-0x10>

0000000000002180 <fputs_unlocked@plt>:
    2180:	ff 25 82 7d 00 00    	jmp    QWORD PTR [rip+0x7d82]        # 9f08 <fputs_unlocked@GLIBC_2.2.5>
    2186:	68 15 00 00 00       	push   0x15
    218b:	e9 90 fe ff ff       	jmp    2020 <free@plt-0x10>

0000000000002190 <calloc@plt>:
    2190:	ff 25 7a 7d 00 00    	jmp    QWORD PTR [rip+0x7d7a]        # 9f10 <calloc@GLIBC_2.2.5>
    2196:	68 16 00 00 00       	push   0x16
    219b:	e9 80 fe ff ff       	jmp    2020 <free@plt-0x10>

00000000000021a0 <strcmp@plt>:
    21a0:	ff 25 72 7d 00 00    	jmp    QWORD PTR [rip+0x7d72]        # 9f18 <strcmp@GLIBC_2.2.5>
    21a6:	68 17 00 00 00       	push   0x17
    21ab:	e9 70 fe ff ff       	jmp    2020 <free@plt-0x10>

00000000000021b0 <fputc_unlocked@plt>:
    21b0:	ff 25 6a 7d 00 00    	jmp    QWORD PTR [rip+0x7d6a]        # 9f20 <fputc_unlocked@GLIBC_2.2.5>
    21b6:	68 18 00 00 00       	push   0x18
    21bb:	e9 60 fe ff ff       	jmp    2020 <free@plt-0x10>

00000000000021c0 <memcpy@plt>:
    21c0:	ff 25 62 7d 00 00    	jmp    QWORD PTR [rip+0x7d62]        # 9f28 <memcpy@GLIBC_2.14>
    21c6:	68 19 00 00 00       	push   0x19
    21cb:	e9 50 fe ff ff       	jmp    2020 <free@plt-0x10>

00000000000021d0 <fileno@plt>:
    21d0:	ff 25 5a 7d 00 00    	jmp    QWORD PTR [rip+0x7d5a]        # 9f30 <fileno@GLIBC_2.2.5>
    21d6:	68 1a 00 00 00       	push   0x1a
    21db:	e9 40 fe ff ff       	jmp    2020 <free@plt-0x10>

00000000000021e0 <strerror_r@plt>:
    21e0:	ff 25 52 7d 00 00    	jmp    QWORD PTR [rip+0x7d52]        # 9f38 <strerror_r@GLIBC_2.2.5>
    21e6:	68 1b 00 00 00       	push   0x1b
    21eb:	e9 30 fe ff ff       	jmp    2020 <free@plt-0x10>

00000000000021f0 <malloc@plt>:
    21f0:	ff 25 4a 7d 00 00    	jmp    QWORD PTR [rip+0x7d4a]        # 9f40 <malloc@GLIBC_2.2.5>
    21f6:	68 1c 00 00 00       	push   0x1c
    21fb:	e9 20 fe ff ff       	jmp    2020 <free@plt-0x10>

0000000000002200 <fflush@plt>:
    2200:	ff 25 42 7d 00 00    	jmp    QWORD PTR [rip+0x7d42]        # 9f48 <fflush@GLIBC_2.2.5>
    2206:	68 1d 00 00 00       	push   0x1d
    220b:	e9 10 fe ff ff       	jmp    2020 <free@plt-0x10>

0000000000002210 <nl_langinfo@plt>:
    2210:	ff 25 3a 7d 00 00    	jmp    QWORD PTR [rip+0x7d3a]        # 9f50 <nl_langinfo@GLIBC_2.2.5>
    2216:	68 1e 00 00 00       	push   0x1e
    221b:	e9 00 fe ff ff       	jmp    2020 <free@plt-0x10>

0000000000002220 <__freading@plt>:
    2220:	ff 25 32 7d 00 00    	jmp    QWORD PTR [rip+0x7d32]        # 9f58 <__freading@GLIBC_2.2.5>
    2226:	68 1f 00 00 00       	push   0x1f
    222b:	e9 f0 fd ff ff       	jmp    2020 <free@plt-0x10>

0000000000002230 <realloc@plt>:
    2230:	ff 25 2a 7d 00 00    	jmp    QWORD PTR [rip+0x7d2a]        # 9f60 <realloc@GLIBC_2.2.5>
    2236:	68 20 00 00 00       	push   0x20
    223b:	e9 e0 fd ff ff       	jmp    2020 <free@plt-0x10>

0000000000002240 <setlocale@plt>:
    2240:	ff 25 22 7d 00 00    	jmp    QWORD PTR [rip+0x7d22]        # 9f68 <setlocale@GLIBC_2.2.5>
    2246:	68 21 00 00 00       	push   0x21
    224b:	e9 d0 fd ff ff       	jmp    2020 <free@plt-0x10>

0000000000002250 <__printf_chk@plt>:
    2250:	ff 25 1a 7d 00 00    	jmp    QWORD PTR [rip+0x7d1a]        # 9f70 <__printf_chk@GLIBC_2.3.4>
    2256:	68 22 00 00 00       	push   0x22
    225b:	e9 c0 fd ff ff       	jmp    2020 <free@plt-0x10>

0000000000002260 <fseeko@plt>:
    2260:	ff 25 12 7d 00 00    	jmp    QWORD PTR [rip+0x7d12]        # 9f78 <fseeko@GLIBC_2.2.5>
    2266:	68 23 00 00 00       	push   0x23
    226b:	e9 b0 fd ff ff       	jmp    2020 <free@plt-0x10>

0000000000002270 <__cxa_atexit@plt>:
    2270:	ff 25 0a 7d 00 00    	jmp    QWORD PTR [rip+0x7d0a]        # 9f80 <__cxa_atexit@GLIBC_2.2.5>
    2276:	68 24 00 00 00       	push   0x24
    227b:	e9 a0 fd ff ff       	jmp    2020 <free@plt-0x10>

0000000000002280 <exit@plt>:
    2280:	ff 25 02 7d 00 00    	jmp    QWORD PTR [rip+0x7d02]        # 9f88 <exit@GLIBC_2.2.5>
    2286:	68 25 00 00 00       	push   0x25
    228b:	e9 90 fd ff ff       	jmp    2020 <free@plt-0x10>

0000000000002290 <fwrite@plt>:
    2290:	ff 25 fa 7c 00 00    	jmp    QWORD PTR [rip+0x7cfa]        # 9f90 <fwrite@GLIBC_2.2.5>
    2296:	68 26 00 00 00       	push   0x26
    229b:	e9 80 fd ff ff       	jmp    2020 <free@plt-0x10>

00000000000022a0 <__fprintf_chk@plt>:
    22a0:	ff 25 f2 7c 00 00    	jmp    QWORD PTR [rip+0x7cf2]        # 9f98 <__fprintf_chk@GLIBC_2.3.4>
    22a6:	68 27 00 00 00       	push   0x27
    22ab:	e9 70 fd ff ff       	jmp    2020 <free@plt-0x10>

00000000000022b0 <fflush_unlocked@plt>:
    22b0:	ff 25 ea 7c 00 00    	jmp    QWORD PTR [rip+0x7cea]        # 9fa0 <fflush_unlocked@GLIBC_2.2.5>
    22b6:	68 28 00 00 00       	push   0x28
    22bb:	e9 60 fd ff ff       	jmp    2020 <free@plt-0x10>

00000000000022c0 <mbsinit@plt>:
    22c0:	ff 25 e2 7c 00 00    	jmp    QWORD PTR [rip+0x7ce2]        # 9fa8 <mbsinit@GLIBC_2.2.5>
    22c6:	68 29 00 00 00       	push   0x29
    22cb:	e9 50 fd ff ff       	jmp    2020 <free@plt-0x10>

00000000000022d0 <iswprint@plt>:
    22d0:	ff 25 da 7c 00 00    	jmp    QWORD PTR [rip+0x7cda]        # 9fb0 <iswprint@GLIBC_2.2.5>
    22d6:	68 2a 00 00 00       	push   0x2a
    22db:	e9 40 fd ff ff       	jmp    2020 <free@plt-0x10>

00000000000022e0 <__ctype_b_loc@plt>:
    22e0:	ff 25 d2 7c 00 00    	jmp    QWORD PTR [rip+0x7cd2]        # 9fb8 <__ctype_b_loc@GLIBC_2.3>
    22e6:	68 2b 00 00 00       	push   0x2b
    22eb:	e9 30 fd ff ff       	jmp    2020 <free@plt-0x10>

Disassembly of section .plt.got:

00000000000022f0 <__cxa_finalize@plt>:
    22f0:	ff 25 ea 7c 00 00    	jmp    QWORD PTR [rip+0x7cea]        # 9fe0 <__cxa_finalize@GLIBC_2.2.5>
    22f6:	66 90                	xchg   ax,ax

Disassembly of section .text:

0000000000002300 <error@@Base-0x176>:
    2300:	48 81 ec 18 04 00 00 	sub    rsp,0x418
    2307:	ba 00 04 00 00       	mov    edx,0x400
    230c:	64 48 8b 34 25 28 00 	mov    rsi,QWORD PTR fs:0x28
    2313:	00 00 
    2315:	48 89 b4 24 08 04 00 	mov    QWORD PTR [rsp+0x408],rsi
    231c:	00 
    231d:	48 8d 74 24 08       	lea    rsi,[rsp+0x8]
    2322:	e8 b9 fe ff ff       	call   21e0 <strerror_r@plt>
    2327:	48 85 c0             	test   rax,rax
    232a:	75 18                	jne    2344 <__cxa_finalize@plt+0x54>
    232c:	ba 05 00 00 00       	mov    edx,0x5
    2331:	48 8d 35 c3 4d 00 00 	lea    rsi,[rip+0x4dc3]        # 70fb <error_at_line@@Base+0x4ae0>
    2338:	48 8d 3d ae 4d 00 00 	lea    rdi,[rip+0x4dae]        # 70ed <error_at_line@@Base+0x4ad2>
    233f:	e8 9c fd ff ff       	call   20e0 <dcgettext@plt>
    2344:	48 8b 3d 55 7d 00 00 	mov    rdi,QWORD PTR [rip+0x7d55]        # a0a0 <stderr@GLIBC_2.2.5>
    234b:	48 89 c1             	mov    rcx,rax
    234e:	be 01 00 00 00       	mov    esi,0x1
    2353:	31 c0                	xor    eax,eax
    2355:	48 8d 15 9a 4d 00 00 	lea    rdx,[rip+0x4d9a]        # 70f6 <error_at_line@@Base+0x4adb>
    235c:	e8 3f ff ff ff       	call   22a0 <__fprintf_chk@plt>
    2361:	48 8b 84 24 08 04 00 	mov    rax,QWORD PTR [rsp+0x408]
    2368:	00 
    2369:	64 48 2b 04 25 28 00 	sub    rax,QWORD PTR fs:0x28
    2370:	00 00 
    2372:	74 05                	je     2379 <__cxa_finalize@plt+0x89>
    2374:	e8 97 fd ff ff       	call   2110 <__stack_chk_fail@plt>
    2379:	48 81 c4 18 04 00 00 	add    rsp,0x418
    2380:	c3                   	ret
    2381:	55                   	push   rbp
    2382:	89 f5                	mov    ebp,esi
    2384:	be 01 00 00 00       	mov    esi,0x1
    2389:	53                   	push   rbx
    238a:	89 fb                	mov    ebx,edi
    238c:	41 50                	push   r8
    238e:	48 8b 3d 0b 7d 00 00 	mov    rdi,QWORD PTR [rip+0x7d0b]        # a0a0 <stderr@GLIBC_2.2.5>
    2395:	e8 a6 fc ff ff       	call   2040 <__vfprintf_chk@plt>
    239a:	ff 05 24 7d 00 00    	inc    DWORD PTR [rip+0x7d24]        # a0c4 <error_message_count@@Base>
    23a0:	85 ed                	test   ebp,ebp
    23a2:	74 07                	je     23ab <__cxa_finalize@plt+0xbb>
    23a4:	89 ef                	mov    edi,ebp
    23a6:	e8 55 ff ff ff       	call   2300 <__cxa_finalize@plt+0x10>
    23ab:	48 8b 3d ee 7c 00 00 	mov    rdi,QWORD PTR [rip+0x7cee]        # a0a0 <stderr@GLIBC_2.2.5>
    23b2:	48 8b 47 28          	mov    rax,QWORD PTR [rdi+0x28]
    23b6:	48 3b 47 30          	cmp    rax,QWORD PTR [rdi+0x30]
    23ba:	72 0c                	jb     23c8 <__cxa_finalize@plt+0xd8>
    23bc:	be 0a 00 00 00       	mov    esi,0xa
    23c1:	e8 5a fd ff ff       	call   2120 <__overflow@plt>
    23c6:	eb 0b                	jmp    23d3 <__cxa_finalize@plt+0xe3>
    23c8:	48 8d 50 01          	lea    rdx,[rax+0x1]
    23cc:	48 89 57 28          	mov    QWORD PTR [rdi+0x28],rdx
    23d0:	c6 00 0a             	mov    BYTE PTR [rax],0xa
    23d3:	48 8b 3d c6 7c 00 00 	mov    rdi,QWORD PTR [rip+0x7cc6]        # a0a0 <stderr@GLIBC_2.2.5>
    23da:	e8 d1 fe ff ff       	call   22b0 <fflush_unlocked@plt>
    23df:	85 db                	test   ebx,ebx
    23e1:	74 07                	je     23ea <__cxa_finalize@plt+0xfa>
    23e3:	89 df                	mov    edi,ebx
    23e5:	e8 96 fe ff ff       	call   2280 <exit@plt>
    23ea:	58                   	pop    rax
    23eb:	5b                   	pop    rbx
    23ec:	5d                   	pop    rbp
    23ed:	c3                   	ret
    23ee:	51                   	push   rcx
    23ef:	31 c0                	xor    eax,eax
    23f1:	be 03 00 00 00       	mov    esi,0x3
    23f6:	bf 01 00 00 00       	mov    edi,0x1
    23fb:	e8 a0 fc ff ff       	call   20a0 <fcntl@plt>
    2400:	85 c0                	test   eax,eax
    2402:	78 0d                	js     2411 <__cxa_finalize@plt+0x121>
    2404:	48 8b 3d 7d 7c 00 00 	mov    rdi,QWORD PTR [rip+0x7c7d]        # a088 <stdout@GLIBC_2.2.5>
    240b:	5a                   	pop    rdx
    240c:	e9 9f fe ff ff       	jmp    22b0 <fflush_unlocked@plt>
    2411:	58                   	pop    rax
    2412:	c3                   	ret
    2413:	f3 0f 1e fa          	endbr64
    2417:	41 55                	push   r13
    2419:	49 89 cd             	mov    r13,rcx
    241c:	41 54                	push   r12
    241e:	49 89 d4             	mov    r12,rdx
    2421:	55                   	push   rbp
    2422:	89 f5                	mov    ebp,esi
    2424:	53                   	push   rbx
    2425:	89 fb                	mov    ebx,edi
    2427:	41 50                	push   r8
    2429:	e8 c0 ff ff ff       	call   23ee <__cxa_finalize@plt+0xfe>
    242e:	48 8b 05 93 7c 00 00 	mov    rax,QWORD PTR [rip+0x7c93]        # a0c8 <error_print_progname@@Base>
    2435:	48 85 c0             	test   rax,rax
    2438:	74 04                	je     243e <__cxa_finalize@plt+0x14e>
    243a:	ff d0                	call   rax
    243c:	eb 22                	jmp    2460 <__cxa_finalize@plt+0x170>
    243e:	e8 9d 08 00 00       	call   2ce0 <error_at_line@@Base+0x6c5>
    2443:	48 8b 3d 56 7c 00 00 	mov    rdi,QWORD PTR [rip+0x7c56]        # a0a0 <stderr@GLIBC_2.2.5>
    244a:	be 01 00 00 00       	mov    esi,0x1
    244f:	48 8d 15 ba 4c 00 00 	lea    rdx,[rip+0x4cba]        # 7110 <error_at_line@@Base+0x4af5>
    2456:	48 89 c1             	mov    rcx,rax
    2459:	31 c0                	xor    eax,eax
    245b:	e8 40 fe ff ff       	call   22a0 <__fprintf_chk@plt>
    2460:	58                   	pop    rax
    2461:	4c 89 e9             	mov    rcx,r13
    2464:	4c 89 e2             	mov    rdx,r12
    2467:	89 ee                	mov    esi,ebp
    2469:	89 df                	mov    edi,ebx
    246b:	5b                   	pop    rbx
    246c:	5d                   	pop    rbp
    246d:	41 5c                	pop    r12
    246f:	41 5d                	pop    r13
    2471:	e9 0b ff ff ff       	jmp    2381 <__cxa_finalize@plt+0x91>

0000000000002476 <error@@Base>:
    2476:	f3 0f 1e fa          	endbr64
    247a:	48 81 ec d8 00 00 00 	sub    rsp,0xd8
    2481:	48 89 4c 24 38       	mov    QWORD PTR [rsp+0x38],rcx
    2486:	4c 89 44 24 40       	mov    QWORD PTR [rsp+0x40],r8
    248b:	4c 89 4c 24 48       	mov    QWORD PTR [rsp+0x48],r9
    2490:	84 c0                	test   al,al
    2492:	74 37                	je     24cb <error@@Base+0x55>
    2494:	0f 29 44 24 50       	movaps XMMWORD PTR [rsp+0x50],xmm0
    2499:	0f 29 4c 24 60       	movaps XMMWORD PTR [rsp+0x60],xmm1
    249e:	0f 29 54 24 70       	movaps XMMWORD PTR [rsp+0x70],xmm2
    24a3:	0f 29 9c 24 80 00 00 	movaps XMMWORD PTR [rsp+0x80],xmm3
    24aa:	00 
    24ab:	0f 29 a4 24 90 00 00 	movaps XMMWORD PTR [rsp+0x90],xmm4
    24b2:	00 
    24b3:	0f 29 ac 24 a0 00 00 	movaps XMMWORD PTR [rsp+0xa0],xmm5
    24ba:	00 
    24bb:	0f 29 b4 24 b0 00 00 	movaps XMMWORD PTR [rsp+0xb0],xmm6
    24c2:	00 
    24c3:	0f 29 bc 24 c0 00 00 	movaps XMMWORD PTR [rsp+0xc0],xmm7
    24ca:	00 
    24cb:	64 48 8b 04 25 28 00 	mov    rax,QWORD PTR fs:0x28
    24d2:	00 00 
    24d4:	48 89 44 24 18       	mov    QWORD PTR [rsp+0x18],rax
    24d9:	31 c0                	xor    eax,eax
    24db:	48 8d 84 24 e0 00 00 	lea    rax,[rsp+0xe0]
    24e2:	00 
    24e3:	48 89 e1             	mov    rcx,rsp
    24e6:	c7 04 24 18 00 00 00 	mov    DWORD PTR [rsp],0x18
    24ed:	48 89 44 24 08       	mov    QWORD PTR [rsp+0x8],rax
    24f2:	48 8d 44 24 20       	lea    rax,[rsp+0x20]
    24f7:	48 89 44 24 10       	mov    QWORD PTR [rsp+0x10],rax
    24fc:	c7 44 24 04 30 00 00 	mov    DWORD PTR [rsp+0x4],0x30
    2503:	00 
    2504:	e8 0a ff ff ff       	call   2413 <__cxa_finalize@plt+0x123>
    2509:	48 8b 44 24 18       	mov    rax,QWORD PTR [rsp+0x18]
    250e:	64 48 2b 04 25 28 00 	sub    rax,QWORD PTR fs:0x28
    2515:	00 00 
    2517:	74 05                	je     251e <error@@Base+0xa8>
    2519:	e8 f2 fb ff ff       	call   2110 <__stack_chk_fail@plt>
    251e:	48 81 c4 d8 00 00 00 	add    rsp,0xd8
    2525:	c3                   	ret
    2526:	f3 0f 1e fa          	endbr64
    252a:	41 57                	push   r15
    252c:	4d 89 cf             	mov    r15,r9
    252f:	41 56                	push   r14
    2531:	4d 89 c6             	mov    r14,r8
    2534:	41 55                	push   r13
    2536:	41 89 f5             	mov    r13d,esi
    2539:	41 54                	push   r12
    253b:	41 89 fc             	mov    r12d,edi
    253e:	55                   	push   rbp
    253f:	89 cd                	mov    ebp,ecx
    2541:	53                   	push   rbx
    2542:	48 89 d3             	mov    rbx,rdx
    2545:	41 52                	push   r10
    2547:	83 3d 72 7b 00 00 00 	cmp    DWORD PTR [rip+0x7b72],0x0        # a0c0 <error_one_per_line@@Base>
    254e:	74 3f                	je     258f <error@@Base+0x119>
    2550:	39 0d 82 7b 00 00    	cmp    DWORD PTR [rip+0x7b82],ecx        # a0d8 <error_print_progname@@Base+0x10>
    2556:	75 2a                	jne    2582 <error@@Base+0x10c>
    2558:	48 8b 3d 71 7b 00 00 	mov    rdi,QWORD PTR [rip+0x7b71]        # a0d0 <error_print_progname@@Base+0x8>
    255f:	48 39 d7             	cmp    rdi,rdx
    2562:	0f 84 a7 00 00 00    	je     260f <error@@Base+0x199>
    2568:	48 85 d2             	test   rdx,rdx
    256b:	74 15                	je     2582 <error@@Base+0x10c>
    256d:	48 85 ff             	test   rdi,rdi
    2570:	74 10                	je     2582 <error@@Base+0x10c>
    2572:	48 89 d6             	mov    rsi,rdx
    2575:	e8 26 fc ff ff       	call   21a0 <strcmp@plt>
    257a:	85 c0                	test   eax,eax
    257c:	0f 84 8d 00 00 00    	je     260f <error@@Base+0x199>
    2582:	48 89 1d 47 7b 00 00 	mov    QWORD PTR [rip+0x7b47],rbx        # a0d0 <error_print_progname@@Base+0x8>
    2589:	89 2d 49 7b 00 00    	mov    DWORD PTR [rip+0x7b49],ebp        # a0d8 <error_print_progname@@Base+0x10>
    258f:	e8 5a fe ff ff       	call   23ee <__cxa_finalize@plt+0xfe>
    2594:	48 8b 05 2d 7b 00 00 	mov    rax,QWORD PTR [rip+0x7b2d]        # a0c8 <error_print_progname@@Base>
    259b:	48 85 c0             	test   rax,rax
    259e:	74 04                	je     25a4 <error@@Base+0x12e>
    25a0:	ff d0                	call   rax
    25a2:	eb 22                	jmp    25c6 <error@@Base+0x150>
    25a4:	e8 37 07 00 00       	call   2ce0 <error_at_line@@Base+0x6c5>
    25a9:	48 8b 3d f0 7a 00 00 	mov    rdi,QWORD PTR [rip+0x7af0]        # a0a0 <stderr@GLIBC_2.2.5>
    25b0:	be 01 00 00 00       	mov    esi,0x1
    25b5:	48 8d 15 61 4b 00 00 	lea    rdx,[rip+0x4b61]        # 711d <error_at_line@@Base+0x4b02>
    25bc:	48 89 c1             	mov    rcx,rax
    25bf:	31 c0                	xor    eax,eax
    25c1:	e8 da fc ff ff       	call   22a0 <__fprintf_chk@plt>
    25c6:	48 8d 15 46 4b 00 00 	lea    rdx,[rip+0x4b46]        # 7113 <error_at_line@@Base+0x4af8>
    25cd:	48 85 db             	test   rbx,rbx
    25d0:	74 07                	je     25d9 <error@@Base+0x163>
    25d2:	48 8d 15 3c 4b 00 00 	lea    rdx,[rip+0x4b3c]        # 7115 <error_at_line@@Base+0x4afa>
    25d9:	48 8b 3d c0 7a 00 00 	mov    rdi,QWORD PTR [rip+0x7ac0]        # a0a0 <stderr@GLIBC_2.2.5>
    25e0:	41 89 e8             	mov    r8d,ebp
    25e3:	48 89 d9             	mov    rcx,rbx
    25e6:	31 c0                	xor    eax,eax
    25e8:	be 01 00 00 00       	mov    esi,0x1
    25ed:	e8 ae fc ff ff       	call   22a0 <__fprintf_chk@plt>
    25f2:	41 58                	pop    r8
    25f4:	4c 89 f9             	mov    rcx,r15
    25f7:	5b                   	pop    rbx
    25f8:	4c 89 f2             	mov    rdx,r14
    25fb:	5d                   	pop    rbp
    25fc:	44 89 ee             	mov    esi,r13d
    25ff:	44 89 e7             	mov    edi,r12d
    2602:	41 5c                	pop    r12
    2604:	41 5d                	pop    r13
    2606:	41 5e                	pop    r14
    2608:	41 5f                	pop    r15
    260a:	e9 72 fd ff ff       	jmp    2381 <__cxa_finalize@plt+0x91>
    260f:	58                   	pop    rax
    2610:	5b                   	pop    rbx
    2611:	5d                   	pop    rbp
    2612:	41 5c                	pop    r12
    2614:	41 5d                	pop    r13
    2616:	41 5e                	pop    r14
    2618:	41 5f                	pop    r15
    261a:	c3                   	ret

000000000000261b <error_at_line@@Base>:
    261b:	f3 0f 1e fa          	endbr64
    261f:	48 81 ec d8 00 00 00 	sub    rsp,0xd8
    2626:	4c 89 4c 24 48       	mov    QWORD PTR [rsp+0x48],r9
    262b:	84 c0                	test   al,al
    262d:	74 37                	je     2666 <error_at_line@@Base+0x4b>
    262f:	0f 29 44 24 50       	movaps XMMWORD PTR [rsp+0x50],xmm0
    2634:	0f 29 4c 24 60       	movaps XMMWORD PTR [rsp+0x60],xmm1
    2639:	0f 29 54 24 70       	movaps XMMWORD PTR [rsp+0x70],xmm2
    263e:	0f 29 9c 24 80 00 00 	movaps XMMWORD PTR [rsp+0x80],xmm3
    2645:	00 
    2646:	0f 29 a4 24 90 00 00 	movaps XMMWORD PTR [rsp+0x90],xmm4
    264d:	00 
    264e:	0f 29 ac 24 a0 00 00 	movaps XMMWORD PTR [rsp+0xa0],xmm5
    2655:	00 
    2656:	0f 29 b4 24 b0 00 00 	movaps XMMWORD PTR [rsp+0xb0],xmm6
    265d:	00 
    265e:	0f 29 bc 24 c0 00 00 	movaps XMMWORD PTR [rsp+0xc0],xmm7
    2665:	00 
    2666:	64 48 8b 04 25 28 00 	mov    rax,QWORD PTR fs:0x28
    266d:	00 00 
    266f:	48 89 44 24 18       	mov    QWORD PTR [rsp+0x18],rax
    2674:	31 c0                	xor    eax,eax
    2676:	48 8d 84 24 e0 00 00 	lea    rax,[rsp+0xe0]
    267d:	00 
    267e:	49 89 e1             	mov    r9,rsp
    2681:	c7 04 24 28 00 00 00 	mov    DWORD PTR [rsp],0x28
    2688:	48 89 44 24 08       	mov    QWORD PTR [rsp+0x8],rax
    268d:	48 8d 44 24 20       	lea    rax,[rsp+0x20]
    2692:	48 89 44 24 10       	mov    QWORD PTR [rsp+0x10],rax
    2697:	c7 44 24 04 30 00 00 	mov    DWORD PTR [rsp+0x4],0x30
    269e:	00 
    269f:	e8 82 fe ff ff       	call   2526 <error@@Base+0xb0>
    26a4:	48 8b 44 24 18       	mov    rax,QWORD PTR [rsp+0x18]
    26a9:	64 48 2b 04 25 28 00 	sub    rax,QWORD PTR fs:0x28
    26b0:	00 00 
    26b2:	74 05                	je     26b9 <error_at_line@@Base+0x9e>
    26b4:	e8 57 fa ff ff       	call   2110 <__stack_chk_fail@plt>
    26b9:	48 81 c4 d8 00 00 00 	add    rsp,0xd8
    26c0:	c3                   	ret
    26c1:	e8 8a f9 ff ff       	call   2050 <abort@plt>
    26c6:	e8 85 f9 ff ff       	call   2050 <abort@plt>
    26cb:	50                   	push   rax
    26cc:	e8 7f f9 ff ff       	call   2050 <abort@plt>
    26d1:	e8 7a f9 ff ff       	call   2050 <abort@plt>
    26d6:	e8 75 f9 ff ff       	call   2050 <abort@plt>
    26db:	e8 70 f9 ff ff       	call   2050 <abort@plt>
    26e0:	e8 6b f9 ff ff       	call   2050 <abort@plt>
    26e5:	e8 66 f9 ff ff       	call   2050 <abort@plt>
    26ea:	e8 61 f9 ff ff       	call   2050 <abort@plt>
    26ef:	e8 5c f9 ff ff       	call   2050 <abort@plt>
    26f4:	e8 57 f9 ff ff       	call   2050 <abort@plt>
    26f9:	e8 52 f9 ff ff       	call   2050 <abort@plt>
    26fe:	e8 4d f9 ff ff       	call   2050 <abort@plt>
    2703:	66 2e 0f 1f 84 00 00 	cs nop WORD PTR [rax+rax*1+0x0]
    270a:	00 00 00 
    270d:	0f 1f 00             	nop    DWORD PTR [rax]
    2710:	f3 0f 1e fa          	endbr64
    2714:	83 ff 02             	cmp    edi,0x2
    2717:	74 03                	je     271c <error_at_line@@Base+0x101>
    2719:	31 c0                	xor    eax,eax
    271b:	c3                   	ret
    271c:	55                   	push   rbp
    271d:	48 8d 2d 64 49 00 00 	lea    rbp,[rip+0x4964]        # 7088 <error_at_line@@Base+0x4a6d>
    2724:	53                   	push   rbx
    2725:	48 89 f3             	mov    rbx,rsi
    2728:	51                   	push   rcx
    2729:	48 8b 3e             	mov    rdi,QWORD PTR [rsi]
    272c:	e8 bf 05 00 00       	call   2cf0 <error_at_line@@Base+0x6d5>
    2731:	48 8d 35 e4 48 00 00 	lea    rsi,[rip+0x48e4]        # 701c <error_at_line@@Base+0x4a01>
    2738:	bf 06 00 00 00       	mov    edi,0x6
    273d:	e8 fe fa ff ff       	call   2240 <setlocale@plt>
    2742:	48 8d 35 64 49 00 00 	lea    rsi,[rip+0x4964]        # 70ad <error_at_line@@Base+0x4a92>
    2749:	48 89 ef             	mov    rdi,rbp
    274c:	e8 7f f9 ff ff       	call   20d0 <bindtextdomain@plt>
    2751:	48 89 ef             	mov    rdi,rbp
    2754:	e8 57 f9 ff ff       	call   20b0 <textdomain@plt>
    2759:	48 8d 3d c0 04 00 00 	lea    rdi,[rip+0x4c0]        # 2c20 <error_at_line@@Base+0x605>
    2760:	e8 6b 3e 00 00       	call   65d0 <error_at_line@@Base+0x3fb5>
    2765:	48 8b 5b 08          	mov    rbx,QWORD PTR [rbx+0x8]
    2769:	48 8d 35 4f 49 00 00 	lea    rsi,[rip+0x494f]        # 70bf <error_at_line@@Base+0x4aa4>
    2770:	48 89 df             	mov    rdi,rbx
    2773:	e8 28 fa ff ff       	call   21a0 <strcmp@plt>
    2778:	85 c0                	test   eax,eax
    277a:	74 53                	je     27cf <error_at_line@@Base+0x1b4>
    277c:	48 8d 35 43 49 00 00 	lea    rsi,[rip+0x4943]        # 70c6 <error_at_line@@Base+0x4aab>
    2783:	48 89 df             	mov    rdi,rbx
    2786:	e8 15 fa ff ff       	call   21a0 <strcmp@plt>
    278b:	85 c0                	test   eax,eax
    278d:	74 06                	je     2795 <error_at_line@@Base+0x17a>
    278f:	5a                   	pop    rdx
    2790:	31 c0                	xor    eax,eax
    2792:	5b                   	pop    rbx
    2793:	5d                   	pop    rbp
    2794:	c3                   	ret
    2795:	48 8d 3d 34 49 00 00 	lea    rdi,[rip+0x4934]        # 70d0 <error_at_line@@Base+0x4ab5>
    279c:	48 89 fe             	mov    rsi,rdi
    279f:	e8 0c 06 00 00       	call   2db0 <error_at_line@@Base+0x795>
    27a4:	48 8b 0d 65 78 00 00 	mov    rcx,QWORD PTR [rip+0x7865]        # a010 <error_at_line@@Base+0x79f5>
    27ab:	45 31 c9             	xor    r9d,r9d
    27ae:	48 8b 3d d3 78 00 00 	mov    rdi,QWORD PTR [rip+0x78d3]        # a088 <stdout@GLIBC_2.2.5>
    27b5:	49 89 c0             	mov    r8,rax
    27b8:	48 8d 15 c5 48 00 00 	lea    rdx,[rip+0x48c5]        # 7084 <error_at_line@@Base+0x4a69>
    27bf:	48 8d 35 3e 48 00 00 	lea    rsi,[rip+0x483e]        # 7004 <error_at_line@@Base+0x49e9>
    27c6:	31 c0                	xor    eax,eax
    27c8:	e8 a3 32 00 00       	call   5a70 <error_at_line@@Base+0x3455>
    27cd:	eb c0                	jmp    278f <error_at_line@@Base+0x174>
    27cf:	31 ff                	xor    edi,edi
    27d1:	e8 fa 00 00 00       	call   28d0 <error_at_line@@Base+0x2b5>
    27d6:	66 2e 0f 1f 84 00 00 	cs nop WORD PTR [rax+rax*1+0x0]
    27dd:	00 00 00 
    27e0:	31 ed                	xor    ebp,ebp
    27e2:	49 89 d1             	mov    r9,rdx
    27e5:	5e                   	pop    rsi
    27e6:	48 89 e2             	mov    rdx,rsp
    27e9:	48 83 e4 f0          	and    rsp,0xfffffffffffffff0
    27ed:	50                   	push   rax
    27ee:	54                   	push   rsp
    27ef:	45 31 c0             	xor    r8d,r8d
    27f2:	31 c9                	xor    ecx,ecx
    27f4:	48 8d 3d 15 ff ff ff 	lea    rdi,[rip+0xffffffffffffff15]        # 2710 <error_at_line@@Base+0xf5>
    27fb:	ff 15 bf 77 00 00    	call   QWORD PTR [rip+0x77bf]        # 9fc0 <error_at_line@@Base+0x79a5>
    2801:	f4                   	hlt
    2802:	66 2e 0f 1f 84 00 00 	cs nop WORD PTR [rax+rax*1+0x0]
    2809:	00 00 00 
    280c:	0f 1f 40 00          	nop    DWORD PTR [rax+0x0]
    2810:	48 8d 3d 69 78 00 00 	lea    rdi,[rip+0x7869]        # a080 <__progname@GLIBC_2.2.5>
    2817:	48 8d 05 62 78 00 00 	lea    rax,[rip+0x7862]        # a080 <__progname@GLIBC_2.2.5>
    281e:	48 39 f8             	cmp    rax,rdi
    2821:	74 15                	je     2838 <error_at_line@@Base+0x21d>
    2823:	48 8b 05 9e 77 00 00 	mov    rax,QWORD PTR [rip+0x779e]        # 9fc8 <error_at_line@@Base+0x79ad>
    282a:	48 85 c0             	test   rax,rax
    282d:	74 09                	je     2838 <error_at_line@@Base+0x21d>
    282f:	ff e0                	jmp    rax
    2831:	0f 1f 80 00 00 00 00 	nop    DWORD PTR [rax+0x0]
    2838:	c3                   	ret
    2839:	0f 1f 80 00 00 00 00 	nop    DWORD PTR [rax+0x0]
    2840:	48 8d 3d 39 78 00 00 	lea    rdi,[rip+0x7839]        # a080 <__progname@GLIBC_2.2.5>
    2847:	48 8d 35 32 78 00 00 	lea    rsi,[rip+0x7832]        # a080 <__progname@GLIBC_2.2.5>
    284e:	48 29 fe             	sub    rsi,rdi
    2851:	48 89 f0             	mov    rax,rsi
    2854:	48 c1 ee 3f          	shr    rsi,0x3f
    2858:	48 c1 f8 03          	sar    rax,0x3
    285c:	48 01 c6             	add    rsi,rax
    285f:	48 d1 fe             	sar    rsi,1
    2862:	74 14                	je     2878 <error_at_line@@Base+0x25d>
    2864:	48 8b 05 6d 77 00 00 	mov    rax,QWORD PTR [rip+0x776d]        # 9fd8 <error_at_line@@Base+0x79bd>
    286b:	48 85 c0             	test   rax,rax
    286e:	74 08                	je     2878 <error_at_line@@Base+0x25d>
    2870:	ff e0                	jmp    rax
    2872:	66 0f 1f 44 00 00    	nop    WORD PTR [rax+rax*1+0x0]
    2878:	c3                   	ret
    2879:	0f 1f 80 00 00 00 00 	nop    DWORD PTR [rax+0x0]
    2880:	f3 0f 1e fa          	endbr64
    2884:	80 3d 1d 78 00 00 00 	cmp    BYTE PTR [rip+0x781d],0x0        # a0a8 <stderr@GLIBC_2.2.5+0x8>
    288b:	75 2b                	jne    28b8 <error_at_line@@Base+0x29d>
    288d:	55                   	push   rbp
    288e:	48 83 3d 4a 77 00 00 	cmp    QWORD PTR [rip+0x774a],0x0        # 9fe0 <error_at_line@@Base+0x79c5>
    2895:	00 
    2896:	48 89 e5             	mov    rbp,rsp
    2899:	74 0c                	je     28a7 <error_at_line@@Base+0x28c>
    289b:	48 8b 3d 66 77 00 00 	mov    rdi,QWORD PTR [rip+0x7766]        # a008 <error_at_line@@Base+0x79ed>
    28a2:	e8 49 fa ff ff       	call   22f0 <__cxa_finalize@plt>
    28a7:	e8 64 ff ff ff       	call   2810 <error_at_line@@Base+0x1f5>
    28ac:	c6 05 f5 77 00 00 01 	mov    BYTE PTR [rip+0x77f5],0x1        # a0a8 <stderr@GLIBC_2.2.5+0x8>
    28b3:	5d                   	pop    rbp
    28b4:	c3                   	ret
    28b5:	0f 1f 00             	nop    DWORD PTR [rax]
    28b8:	c3                   	ret
    28b9:	0f 1f 80 00 00 00 00 	nop    DWORD PTR [rax+0x0]
    28c0:	f3 0f 1e fa          	endbr64
    28c4:	e9 77 ff ff ff       	jmp    2840 <error_at_line@@Base+0x225>
    28c9:	0f 1f 80 00 00 00 00 	nop    DWORD PTR [rax+0x0]
    28d0:	f3 0f 1e fa          	endbr64
    28d4:	41 56                	push   r14
    28d6:	ba 05 00 00 00       	mov    edx,0x5
    28db:	48 8d 35 a6 49 00 00 	lea    rsi,[rip+0x49a6]        # 7288 <error_at_line@@Base+0x4c6d>
    28e2:	41 55                	push   r13
    28e4:	41 54                	push   r12
    28e6:	55                   	push   rbp
    28e7:	48 8d 2d 16 47 00 00 	lea    rbp,[rip+0x4716]        # 7004 <error_at_line@@Base+0x49e9>
    28ee:	53                   	push   rbx
    28ef:	48 83 c4 80          	add    rsp,0xffffffffffffff80
    28f3:	48 8b 1d e6 77 00 00 	mov    rbx,QWORD PTR [rip+0x77e6]        # a0e0 <error_print_progname@@Base+0x18>
    28fa:	64 4c 8b 24 25 28 00 	mov    r12,QWORD PTR fs:0x28
    2901:	00 00 
    2903:	4c 89 64 24 78       	mov    QWORD PTR [rsp+0x78],r12
    2908:	41 89 fc             	mov    r12d,edi
    290b:	31 ff                	xor    edi,edi
    290d:	e8 ce f7 ff ff       	call   20e0 <dcgettext@plt>
    2912:	48 89 d9             	mov    rcx,rbx
    2915:	48 89 da             	mov    rdx,rbx
    2918:	bf 01 00 00 00       	mov    edi,0x1
    291d:	48 89 c6             	mov    rsi,rax
    2920:	31 c0                	xor    eax,eax
    2922:	e8 29 f9 ff ff       	call   2250 <__printf_chk@plt>
    2927:	ba 05 00 00 00       	mov    edx,0x5
    292c:	48 8d 35 9d 49 00 00 	lea    rsi,[rip+0x499d]        # 72d0 <error_at_line@@Base+0x4cb5>
    2933:	31 ff                	xor    edi,edi
    2935:	e8 a6 f7 ff ff       	call   20e0 <dcgettext@plt>
    293a:	48 8d 35 d7 46 00 00 	lea    rsi,[rip+0x46d7]        # 7018 <error_at_line@@Base+0x49fd>
    2941:	bf 01 00 00 00       	mov    edi,0x1
    2946:	48 89 c2             	mov    rdx,rax
    2949:	31 c0                	xor    eax,eax
    294b:	e8 00 f9 ff ff       	call   2250 <__printf_chk@plt>
    2950:	48 8b 1d 31 77 00 00 	mov    rbx,QWORD PTR [rip+0x7731]        # a088 <stdout@GLIBC_2.2.5>
    2957:	ba 05 00 00 00       	mov    edx,0x5
    295c:	31 ff                	xor    edi,edi
    295e:	48 8d 35 9b 49 00 00 	lea    rsi,[rip+0x499b]        # 7300 <error_at_line@@Base+0x4ce5>
    2965:	e8 76 f7 ff ff       	call   20e0 <dcgettext@plt>
    296a:	48 89 de             	mov    rsi,rbx
    296d:	48 89 c7             	mov    rdi,rax
    2970:	e8 0b f8 ff ff       	call   2180 <fputs_unlocked@plt>
    2975:	48 8b 1d 0c 77 00 00 	mov    rbx,QWORD PTR [rip+0x770c]        # a088 <stdout@GLIBC_2.2.5>
    297c:	ba 05 00 00 00       	mov    edx,0x5
    2981:	31 ff                	xor    edi,edi
    2983:	48 8d 35 a6 49 00 00 	lea    rsi,[rip+0x49a6]        # 7330 <error_at_line@@Base+0x4d15>
    298a:	e8 51 f7 ff ff       	call   20e0 <dcgettext@plt>
    298f:	48 89 de             	mov    rsi,rbx
    2992:	48 89 e3             	mov    rbx,rsp
    2995:	48 89 c7             	mov    rdi,rax
    2998:	e8 e3 f7 ff ff       	call   2180 <fputs_unlocked@plt>
    299d:	ba 05 00 00 00       	mov    edx,0x5
    29a2:	48 8d 35 c7 49 00 00 	lea    rsi,[rip+0x49c7]        # 7370 <error_at_line@@Base+0x4d55>
    29a9:	31 ff                	xor    edi,edi
    29ab:	e8 30 f7 ff ff       	call   20e0 <dcgettext@plt>
    29b0:	48 89 ea             	mov    rdx,rbp
    29b3:	bf 01 00 00 00       	mov    edi,0x1
    29b8:	48 89 c6             	mov    rsi,rax
    29bb:	31 c0                	xor    eax,eax
    29bd:	e8 8e f8 ff ff       	call   2250 <__printf_chk@plt>
    29c2:	48 8d 05 56 46 00 00 	lea    rax,[rip+0x4656]        # 701f <error_at_line@@Base+0x4a04>
    29c9:	f3 0f 7e 0d ef 71 00 	movq   xmm1,QWORD PTR [rip+0x71ef]        # 9bc0 <error_at_line@@Base+0x75a5>
    29d0:	00 
    29d1:	66 48 0f 6e d0       	movq   xmm2,rax
    29d6:	48 8d 05 52 46 00 00 	lea    rax,[rip+0x4652]        # 702f <error_at_line@@Base+0x4a14>
    29dd:	66 0f 6c ca          	punpcklqdq xmm1,xmm2
    29e1:	66 48 0f 6e d8       	movq   xmm3,rax
    29e6:	48 8d 05 1c 46 00 00 	lea    rax,[rip+0x461c]        # 7009 <error_at_line@@Base+0x49ee>
    29ed:	0f 29 0c 24          	movaps XMMWORD PTR [rsp],xmm1
    29f1:	66 48 0f 6e c0       	movq   xmm0,rax
    29f6:	f3 0f 7e 0d ca 71 00 	movq   xmm1,QWORD PTR [rip+0x71ca]        # 9bc8 <error_at_line@@Base+0x75ad>
    29fd:	00 
    29fe:	66 0f 6c cb          	punpcklqdq xmm1,xmm3
    2a02:	0f 29 4c 24 10       	movaps XMMWORD PTR [rsp+0x10],xmm1
    2a07:	f3 0f 7e 0d c1 71 00 	movq   xmm1,QWORD PTR [rip+0x71c1]        # 9bd0 <error_at_line@@Base+0x75b5>
    2a0e:	00 
    2a0f:	66 0f 6c c8          	punpcklqdq xmm1,xmm0
    2a13:	0f 29 4c 24 20       	movaps XMMWORD PTR [rsp+0x20],xmm1
    2a18:	f3 0f 7e 0d b8 71 00 	movq   xmm1,QWORD PTR [rip+0x71b8]        # 9bd8 <error_at_line@@Base+0x75bd>
    2a1f:	00 
    2a20:	66 0f 6c c8          	punpcklqdq xmm1,xmm0
    2a24:	0f 29 4c 24 30       	movaps XMMWORD PTR [rsp+0x30],xmm1
    2a29:	f3 0f 7e 0d af 71 00 	movq   xmm1,QWORD PTR [rip+0x71af]        # 9be0 <error_at_line@@Base+0x75c5>
    2a30:	00 
    2a31:	66 0f 6c c8          	punpcklqdq xmm1,xmm0
    2a35:	0f 29 4c 24 40       	movaps XMMWORD PTR [rsp+0x40],xmm1
    2a3a:	f3 0f 7e 0d a6 71 00 	movq   xmm1,QWORD PTR [rip+0x71a6]        # 9be8 <error_at_line@@Base+0x75cd>
    2a41:	00 
    2a42:	66 0f 6c c8          	punpcklqdq xmm1,xmm0
    2a46:	66 0f ef c0          	pxor   xmm0,xmm0
    2a4a:	0f 29 4c 24 50       	movaps XMMWORD PTR [rsp+0x50],xmm1
    2a4f:	0f 29 44 24 60       	movaps XMMWORD PTR [rsp+0x60],xmm0
    2a54:	66 66 2e 0f 1f 84 00 	data16 cs nop WORD PTR [rax+rax*1+0x0]
    2a5b:	00 00 00 00 
    2a5f:	90                   	nop
    2a60:	48 8b 73 10          	mov    rsi,QWORD PTR [rbx+0x10]
    2a64:	48 83 c3 10          	add    rbx,0x10
    2a68:	48 85 f6             	test   rsi,rsi
    2a6b:	74 0c                	je     2a79 <error_at_line@@Base+0x45e>
    2a6d:	48 89 ef             	mov    rdi,rbp
    2a70:	e8 2b f7 ff ff       	call   21a0 <strcmp@plt>
    2a75:	85 c0                	test   eax,eax
    2a77:	75 e7                	jne    2a60 <error_at_line@@Base+0x445>
    2a79:	4c 8b 6b 08          	mov    r13,QWORD PTR [rbx+0x8]
    2a7d:	ba 05 00 00 00       	mov    edx,0x5
    2a82:	48 8d 35 e4 45 00 00 	lea    rsi,[rip+0x45e4]        # 706d <error_at_line@@Base+0x4a52>
    2a89:	31 ff                	xor    edi,edi
    2a8b:	4d 85 ed             	test   r13,r13
    2a8e:	0f 84 e1 00 00 00    	je     2b75 <error_at_line@@Base+0x55a>
    2a94:	e8 47 f6 ff ff       	call   20e0 <dcgettext@plt>
    2a99:	48 8d 1d 90 49 00 00 	lea    rbx,[rip+0x4990]        # 7430 <error_at_line@@Base+0x4e15>
    2aa0:	bf 01 00 00 00       	mov    edi,0x1
    2aa5:	48 8d 15 d8 45 00 00 	lea    rdx,[rip+0x45d8]        # 7084 <error_at_line@@Base+0x4a69>
    2aac:	48 89 c6             	mov    rsi,rax
    2aaf:	48 89 d9             	mov    rcx,rbx
    2ab2:	31 c0                	xor    eax,eax
    2ab4:	e8 97 f7 ff ff       	call   2250 <__printf_chk@plt>
    2ab9:	31 f6                	xor    esi,esi
    2abb:	bf 05 00 00 00       	mov    edi,0x5
    2ac0:	e8 7b f7 ff ff       	call   2240 <setlocale@plt>
    2ac5:	48 85 c0             	test   rax,rax
    2ac8:	74 2e                	je     2af8 <error_at_line@@Base+0x4dd>
    2aca:	80 38 65             	cmp    BYTE PTR [rax],0x65
    2acd:	0f 84 8d 00 00 00    	je     2b60 <error_at_line@@Base+0x545>
    2ad3:	4c 8b 35 ae 75 00 00 	mov    r14,QWORD PTR [rip+0x75ae]        # a088 <stdout@GLIBC_2.2.5>
    2ada:	48 8d 35 77 49 00 00 	lea    rsi,[rip+0x4977]        # 7458 <error_at_line@@Base+0x4e3d>
    2ae1:	31 ff                	xor    edi,edi
    2ae3:	ba 05 00 00 00       	mov    edx,0x5
    2ae8:	e8 f3 f5 ff ff       	call   20e0 <dcgettext@plt>
    2aed:	48 89 c7             	mov    rdi,rax
    2af0:	4c 89 f6             	mov    rsi,r14
    2af3:	e8 88 f6 ff ff       	call   2180 <fputs_unlocked@plt>
    2af8:	ba 05 00 00 00       	mov    edx,0x5
    2afd:	48 8d 35 8e 45 00 00 	lea    rsi,[rip+0x458e]        # 7092 <error_at_line@@Base+0x4a77>
    2b04:	31 ff                	xor    edi,edi
    2b06:	e8 d5 f5 ff ff       	call   20e0 <dcgettext@plt>
    2b0b:	48 89 da             	mov    rdx,rbx
    2b0e:	48 89 e9             	mov    rcx,rbp
    2b11:	bf 01 00 00 00       	mov    edi,0x1
    2b16:	48 89 c6             	mov    rsi,rax
    2b19:	31 c0                	xor    eax,eax
    2b1b:	48 8d 1d fa 44 00 00 	lea    rbx,[rip+0x44fa]        # 701c <error_at_line@@Base+0x4a01>
    2b22:	e8 29 f7 ff ff       	call   2250 <__printf_chk@plt>
    2b27:	49 39 ed             	cmp    r13,rbp
    2b2a:	0f 84 ae 00 00 00    	je     2bde <error_at_line@@Base+0x5c3>
    2b30:	ba 05 00 00 00       	mov    edx,0x5
    2b35:	48 8d 35 64 49 00 00 	lea    rsi,[rip+0x4964]        # 74a0 <error_at_line@@Base+0x4e85>
    2b3c:	31 ff                	xor    edi,edi
    2b3e:	e8 9d f5 ff ff       	call   20e0 <dcgettext@plt>
    2b43:	bf 01 00 00 00       	mov    edi,0x1
    2b48:	48 89 d9             	mov    rcx,rbx
    2b4b:	4c 89 ea             	mov    rdx,r13
    2b4e:	48 89 c6             	mov    rsi,rax
    2b51:	31 c0                	xor    eax,eax
    2b53:	e8 f8 f6 ff ff       	call   2250 <__printf_chk@plt>
    2b58:	44 89 e7             	mov    edi,r12d
    2b5b:	e8 20 f7 ff ff       	call   2280 <exit@plt>
    2b60:	80 78 01 6e          	cmp    BYTE PTR [rax+0x1],0x6e
    2b64:	0f 85 69 ff ff ff    	jne    2ad3 <error_at_line@@Base+0x4b8>
    2b6a:	80 78 02 5f          	cmp    BYTE PTR [rax+0x2],0x5f
    2b6e:	74 88                	je     2af8 <error_at_line@@Base+0x4dd>
    2b70:	e9 5e ff ff ff       	jmp    2ad3 <error_at_line@@Base+0x4b8>
    2b75:	e8 66 f5 ff ff       	call   20e0 <dcgettext@plt>
    2b7a:	48 8d 1d af 48 00 00 	lea    rbx,[rip+0x48af]        # 7430 <error_at_line@@Base+0x4e15>
    2b81:	48 8d 15 fc 44 00 00 	lea    rdx,[rip+0x44fc]        # 7084 <error_at_line@@Base+0x4a69>
    2b88:	bf 01 00 00 00       	mov    edi,0x1
    2b8d:	48 89 c6             	mov    rsi,rax
    2b90:	48 89 d9             	mov    rcx,rbx
    2b93:	4c 8d 2d 6a 44 00 00 	lea    r13,[rip+0x446a]        # 7004 <error_at_line@@Base+0x49e9>
    2b9a:	31 c0                	xor    eax,eax
    2b9c:	e8 af f6 ff ff       	call   2250 <__printf_chk@plt>
    2ba1:	31 f6                	xor    esi,esi
    2ba3:	bf 05 00 00 00       	mov    edi,0x5
    2ba8:	e8 93 f6 ff ff       	call   2240 <setlocale@plt>
    2bad:	48 85 c0             	test   rax,rax
    2bb0:	0f 85 14 ff ff ff    	jne    2aca <error_at_line@@Base+0x4af>
    2bb6:	ba 05 00 00 00       	mov    edx,0x5
    2bbb:	48 8d 35 d0 44 00 00 	lea    rsi,[rip+0x44d0]        # 7092 <error_at_line@@Base+0x4a77>
    2bc2:	31 ff                	xor    edi,edi
    2bc4:	e8 17 f5 ff ff       	call   20e0 <dcgettext@plt>
    2bc9:	48 89 e9             	mov    rcx,rbp
    2bcc:	48 89 da             	mov    rdx,rbx
    2bcf:	bf 01 00 00 00       	mov    edi,0x1
    2bd4:	48 89 c6             	mov    rsi,rax
    2bd7:	31 c0                	xor    eax,eax
    2bd9:	e8 72 f6 ff ff       	call   2250 <__printf_chk@plt>
    2bde:	4c 8d 2d 1f 44 00 00 	lea    r13,[rip+0x441f]        # 7004 <error_at_line@@Base+0x49e9>
    2be5:	48 8d 1d 4d 44 00 00 	lea    rbx,[rip+0x444d]        # 7039 <error_at_line@@Base+0x4a1e>
    2bec:	e9 3f ff ff ff       	jmp    2b30 <error_at_line@@Base+0x515>
    2bf1:	66 2e 0f 1f 84 00 00 	cs nop WORD PTR [rax+rax*1+0x0]
    2bf8:	00 00 00 
    2bfb:	0f 1f 44 00 00       	nop    DWORD PTR [rax+rax*1+0x0]
    2c00:	f3 0f 1e fa          	endbr64
    2c04:	48 89 3d ad 74 00 00 	mov    QWORD PTR [rip+0x74ad],rdi        # a0b8 <stderr@GLIBC_2.2.5+0x18>
    2c0b:	c3                   	ret
    2c0c:	0f 1f 40 00          	nop    DWORD PTR [rax+0x0]
    2c10:	f3 0f 1e fa          	endbr64
    2c14:	40 88 3d 95 74 00 00 	mov    BYTE PTR [rip+0x7495],dil        # a0b0 <stderr@GLIBC_2.2.5+0x10>
    2c1b:	c3                   	ret
    2c1c:	0f 1f 40 00          	nop    DWORD PTR [rax+0x0]
    2c20:	f3 0f 1e fa          	endbr64
    2c24:	53                   	push   rbx
    2c25:	48 83 ec 10          	sub    rsp,0x10
    2c29:	48 8b 3d 58 74 00 00 	mov    rdi,QWORD PTR [rip+0x7458]        # a088 <stdout@GLIBC_2.2.5>
    2c30:	e8 6b 35 00 00       	call   61a0 <error_at_line@@Base+0x3b85>
    2c35:	85 c0                	test   eax,eax
    2c37:	74 13                	je     2c4c <error_at_line@@Base+0x631>
    2c39:	80 3d 70 74 00 00 00 	cmp    BYTE PTR [rip+0x7470],0x0        # a0b0 <stderr@GLIBC_2.2.5+0x10>
    2c40:	74 20                	je     2c62 <error_at_line@@Base+0x647>
    2c42:	e8 19 f4 ff ff       	call   2060 <__errno_location@plt>
    2c47:	83 38 20             	cmp    DWORD PTR [rax],0x20
    2c4a:	75 16                	jne    2c62 <error_at_line@@Base+0x647>
    2c4c:	48 8b 3d 4d 74 00 00 	mov    rdi,QWORD PTR [rip+0x744d]        # a0a0 <stderr@GLIBC_2.2.5>
    2c53:	e8 48 35 00 00       	call   61a0 <error_at_line@@Base+0x3b85>
    2c58:	85 c0                	test   eax,eax
    2c5a:	75 56                	jne    2cb2 <error_at_line@@Base+0x697>
    2c5c:	48 83 c4 10          	add    rsp,0x10
    2c60:	5b                   	pop    rbx
    2c61:	c3                   	ret
    2c62:	48 8d 3d 84 44 00 00 	lea    rdi,[rip+0x4484]        # 70ed <error_at_line@@Base+0x4ad2>
    2c69:	ba 05 00 00 00       	mov    edx,0x5
    2c6e:	48 8d 35 6c 44 00 00 	lea    rsi,[rip+0x446c]        # 70e1 <error_at_line@@Base+0x4ac6>
    2c75:	e8 66 f4 ff ff       	call   20e0 <dcgettext@plt>
    2c7a:	48 8b 3d 37 74 00 00 	mov    rdi,QWORD PTR [rip+0x7437]        # a0b8 <stderr@GLIBC_2.2.5+0x18>
    2c81:	48 89 c3             	mov    rbx,rax
    2c84:	48 85 ff             	test   rdi,rdi
    2c87:	74 34                	je     2cbd <error_at_line@@Base+0x6a2>
    2c89:	e8 c2 23 00 00       	call   5050 <error_at_line@@Base+0x2a35>
    2c8e:	48 89 44 24 08       	mov    QWORD PTR [rsp+0x8],rax
    2c93:	e8 c8 f3 ff ff       	call   2060 <__errno_location@plt>
    2c98:	48 8b 4c 24 08       	mov    rcx,QWORD PTR [rsp+0x8]
    2c9d:	49 89 d8             	mov    r8,rbx
    2ca0:	31 ff                	xor    edi,edi
    2ca2:	8b 30                	mov    esi,DWORD PTR [rax]
    2ca4:	48 8d 15 49 44 00 00 	lea    rdx,[rip+0x4449]        # 70f4 <error_at_line@@Base+0x4ad9>
    2cab:	31 c0                	xor    eax,eax
    2cad:	e8 c4 f7 ff ff       	call   2476 <error@@Base>
    2cb2:	8b 3d 60 73 00 00    	mov    edi,DWORD PTR [rip+0x7360]        # a018 <error_at_line@@Base+0x79fd>
    2cb8:	e8 c3 f3 ff ff       	call   2080 <_exit@plt>
    2cbd:	e8 9e f3 ff ff       	call   2060 <__errno_location@plt>
    2cc2:	48 89 d9             	mov    rcx,rbx
    2cc5:	48 8d 15 2c 44 00 00 	lea    rdx,[rip+0x442c]        # 70f8 <error_at_line@@Base+0x4add>
    2ccc:	31 ff                	xor    edi,edi
    2cce:	8b 30                	mov    esi,DWORD PTR [rax]
    2cd0:	31 c0                	xor    eax,eax
    2cd2:	e8 9f f7 ff ff       	call   2476 <error@@Base>
    2cd7:	eb d9                	jmp    2cb2 <error_at_line@@Base+0x697>
    2cd9:	0f 1f 80 00 00 00 00 	nop    DWORD PTR [rax+0x0]
    2ce0:	f3 0f 1e fa          	endbr64
    2ce4:	48 8b 05 95 73 00 00 	mov    rax,QWORD PTR [rip+0x7395]        # a080 <__progname@GLIBC_2.2.5>
    2ceb:	c3                   	ret
    2cec:	0f 1f 40 00          	nop    DWORD PTR [rax+0x0]
    2cf0:	f3 0f 1e fa          	endbr64
    2cf4:	41 54                	push   r12
    2cf6:	55                   	push   rbp
    2cf7:	53                   	push   rbx
    2cf8:	48 85 ff             	test   rdi,rdi
    2cfb:	0f 84 84 00 00 00    	je     2d85 <error_at_line@@Base+0x76a>
    2d01:	be 2f 00 00 00       	mov    esi,0x2f
    2d06:	48 89 fb             	mov    rbx,rdi
    2d09:	e8 22 f4 ff ff       	call   2130 <strrchr@plt>
    2d0e:	49 89 dc             	mov    r12,rbx
    2d11:	48 89 c5             	mov    rbp,rax
    2d14:	48 85 c0             	test   rax,rax
    2d17:	74 46                	je     2d5f <error_at_line@@Base+0x744>
    2d19:	4c 8d 60 01          	lea    r12,[rax+0x1]
    2d1d:	4c 89 e0             	mov    rax,r12
    2d20:	48 29 d8             	sub    rax,rbx
    2d23:	48 83 f8 06          	cmp    rax,0x6
    2d27:	7e 36                	jle    2d5f <error_at_line@@Base+0x744>
    2d29:	48 8d 7d fa          	lea    rdi,[rbp-0x6]
    2d2d:	ba 07 00 00 00       	mov    edx,0x7
    2d32:	48 8d 35 e8 43 00 00 	lea    rsi,[rip+0x43e8]        # 7121 <error_at_line@@Base+0x4b06>
    2d39:	e8 32 f3 ff ff       	call   2070 <strncmp@plt>
    2d3e:	85 c0                	test   eax,eax
    2d40:	75 1d                	jne    2d5f <error_at_line@@Base+0x744>
    2d42:	80 7d 01 6c          	cmp    BYTE PTR [rbp+0x1],0x6c
    2d46:	75 38                	jne    2d80 <error_at_line@@Base+0x765>
    2d48:	41 80 7c 24 01 74    	cmp    BYTE PTR [r12+0x1],0x74
    2d4e:	75 30                	jne    2d80 <error_at_line@@Base+0x765>
    2d50:	41 80 7c 24 02 2d    	cmp    BYTE PTR [r12+0x2],0x2d
    2d56:	75 28                	jne    2d80 <error_at_line@@Base+0x765>
    2d58:	48 8d 5d 04          	lea    rbx,[rbp+0x4]
    2d5c:	49 89 dc             	mov    r12,rbx
    2d5f:	48 89 1d 7a 73 00 00 	mov    QWORD PTR [rip+0x737a],rbx        # a0e0 <error_print_progname@@Base+0x18>
    2d66:	48 89 1d 23 73 00 00 	mov    QWORD PTR [rip+0x7323],rbx        # a090 <__progname_full@GLIBC_2.2.5>
    2d6d:	5b                   	pop    rbx
    2d6e:	4c 89 25 0b 73 00 00 	mov    QWORD PTR [rip+0x730b],r12        # a080 <__progname@GLIBC_2.2.5>
    2d75:	5d                   	pop    rbp
    2d76:	41 5c                	pop    r12
    2d78:	c3                   	ret
    2d79:	0f 1f 80 00 00 00 00 	nop    DWORD PTR [rax+0x0]
    2d80:	4c 89 e3             	mov    rbx,r12
    2d83:	eb da                	jmp    2d5f <error_at_line@@Base+0x744>
    2d85:	48 8b 0d 14 73 00 00 	mov    rcx,QWORD PTR [rip+0x7314]        # a0a0 <stderr@GLIBC_2.2.5>
    2d8c:	ba 37 00 00 00       	mov    edx,0x37
    2d91:	be 01 00 00 00       	mov    esi,0x1
    2d96:	48 8d 3d 3b 47 00 00 	lea    rdi,[rip+0x473b]        # 74d8 <error_at_line@@Base+0x4ebd>
    2d9d:	e8 ee f4 ff ff       	call   2290 <fwrite@plt>
    2da2:	e8 a9 f2 ff ff       	call   2050 <abort@plt>
    2da7:	66 0f 1f 84 00 00 00 	nop    WORD PTR [rax+rax*1+0x0]
    2dae:	00 00 
    2db0:	f3 0f 1e fa          	endbr64
    2db4:	41 54                	push   r12
    2db6:	ba 05 00 00 00       	mov    edx,0x5
    2dbb:	49 89 f4             	mov    r12,rsi
    2dbe:	48 89 fe             	mov    rsi,rdi
    2dc1:	55                   	push   rbp
    2dc2:	48 89 fd             	mov    rbp,rdi
    2dc5:	31 ff                	xor    edi,edi
    2dc7:	53                   	push   rbx
    2dc8:	e8 13 f3 ff ff       	call   20e0 <dcgettext@plt>
    2dcd:	48 89 c3             	mov    rbx,rax
    2dd0:	48 39 c5             	cmp    rbp,rax
    2dd3:	74 0b                	je     2de0 <error_at_line@@Base+0x7c5>
    2dd5:	48 89 d8             	mov    rax,rbx
    2dd8:	5b                   	pop    rbx
    2dd9:	5d                   	pop    rbp
    2dda:	41 5c                	pop    r12
    2ddc:	c3                   	ret
    2ddd:	0f 1f 00             	nop    DWORD PTR [rax]
    2de0:	e8 6b 35 00 00       	call   6350 <error_at_line@@Base+0x3d35>
    2de5:	48 8d 35 3d 43 00 00 	lea    rsi,[rip+0x433d]        # 7129 <error_at_line@@Base+0x4b0e>
    2dec:	48 89 c7             	mov    rdi,rax
    2def:	e8 4c 33 00 00       	call   6140 <error_at_line@@Base+0x3b25>
    2df4:	85 c0                	test   eax,eax
    2df6:	49 0f 44 dc          	cmove  rbx,r12
    2dfa:	48 89 d8             	mov    rax,rbx
    2dfd:	5b                   	pop    rbx
    2dfe:	5d                   	pop    rbp
    2dff:	41 5c                	pop    r12
    2e01:	c3                   	ret
    2e02:	66 2e 0f 1f 84 00 00 	cs nop WORD PTR [rax+rax*1+0x0]
    2e09:	00 00 00 
    2e0c:	66 2e 0f 1f 84 00 00 	cs nop WORD PTR [rax+rax*1+0x0]
    2e13:	00 00 00 
    2e16:	66 2e 0f 1f 84 00 00 	cs nop WORD PTR [rax+rax*1+0x0]
    2e1d:	00 00 00 
    2e20:	55                   	push   rbp
    2e21:	89 f5                	mov    ebp,esi
    2e23:	53                   	push   rbx
    2e24:	48 89 fb             	mov    rbx,rdi
    2e27:	48 83 ec 08          	sub    rsp,0x8
    2e2b:	e8 20 35 00 00       	call   6350 <error_at_line@@Base+0x3d35>
    2e30:	0f b6 10             	movzx  edx,BYTE PTR [rax]
    2e33:	83 e2 df             	and    edx,0xffffffdf
    2e36:	80 fa 55             	cmp    dl,0x55
    2e39:	75 4d                	jne    2e88 <error_at_line@@Base+0x86d>
    2e3b:	0f b6 50 01          	movzx  edx,BYTE PTR [rax+0x1]
    2e3f:	83 e2 df             	and    edx,0xffffffdf
    2e42:	80 fa 54             	cmp    dl,0x54
    2e45:	75 58                	jne    2e9f <error_at_line@@Base+0x884>
    2e47:	0f b6 50 02          	movzx  edx,BYTE PTR [rax+0x2]
    2e4b:	83 e2 df             	and    edx,0xffffffdf
    2e4e:	80 fa 46             	cmp    dl,0x46
    2e51:	75 4c                	jne    2e9f <error_at_line@@Base+0x884>
    2e53:	80 78 03 2d          	cmp    BYTE PTR [rax+0x3],0x2d
    2e57:	75 46                	jne    2e9f <error_at_line@@Base+0x884>
    2e59:	80 78 04 38          	cmp    BYTE PTR [rax+0x4],0x38
    2e5d:	75 40                	jne    2e9f <error_at_line@@Base+0x884>
    2e5f:	80 78 05 00          	cmp    BYTE PTR [rax+0x5],0x0
    2e63:	75 3a                	jne    2e9f <error_at_line@@Base+0x884>
    2e65:	80 3b 60             	cmp    BYTE PTR [rbx],0x60
    2e68:	48 8d 05 c0 42 00 00 	lea    rax,[rip+0x42c0]        # 712f <error_at_line@@Base+0x4b14>
    2e6f:	48 8d 15 c8 42 00 00 	lea    rdx,[rip+0x42c8]        # 713e <error_at_line@@Base+0x4b23>
    2e76:	48 0f 44 c2          	cmove  rax,rdx
    2e7a:	48 83 c4 08          	add    rsp,0x8
    2e7e:	5b                   	pop    rbx
    2e7f:	5d                   	pop    rbp
    2e80:	c3                   	ret
    2e81:	0f 1f 80 00 00 00 00 	nop    DWORD PTR [rax+0x0]
    2e88:	80 fa 47             	cmp    dl,0x47
    2e8b:	75 12                	jne    2e9f <error_at_line@@Base+0x884>
    2e8d:	0f b6 50 01          	movzx  edx,BYTE PTR [rax+0x1]
    2e91:	83 e2 df             	and    edx,0xffffffdf
    2e94:	80 fa 42             	cmp    dl,0x42
    2e97:	75 06                	jne    2e9f <error_at_line@@Base+0x884>
    2e99:	80 78 02 31          	cmp    BYTE PTR [rax+0x2],0x31
    2e9d:	74 21                	je     2ec0 <error_at_line@@Base+0x8a5>
    2e9f:	83 fd 09             	cmp    ebp,0x9
    2ea2:	48 8d 05 8f 42 00 00 	lea    rax,[rip+0x428f]        # 7138 <error_at_line@@Base+0x4b1d>
    2ea9:	48 8d 15 86 42 00 00 	lea    rdx,[rip+0x4286]        # 7136 <error_at_line@@Base+0x4b1b>
    2eb0:	48 0f 44 c2          	cmove  rax,rdx
    2eb4:	48 83 c4 08          	add    rsp,0x8
    2eb8:	5b                   	pop    rbx
    2eb9:	5d                   	pop    rbp
    2eba:	c3                   	ret
    2ebb:	0f 1f 44 00 00       	nop    DWORD PTR [rax+rax*1+0x0]
    2ec0:	80 78 03 38          	cmp    BYTE PTR [rax+0x3],0x38
    2ec4:	75 d9                	jne    2e9f <error_at_line@@Base+0x884>
    2ec6:	80 78 04 30          	cmp    BYTE PTR [rax+0x4],0x30
    2eca:	75 d3                	jne    2e9f <error_at_line@@Base+0x884>
    2ecc:	80 78 05 33          	cmp    BYTE PTR [rax+0x5],0x33
    2ed0:	75 cd                	jne    2e9f <error_at_line@@Base+0x884>
    2ed2:	80 78 06 30          	cmp    BYTE PTR [rax+0x6],0x30
    2ed6:	75 c7                	jne    2e9f <error_at_line@@Base+0x884>
    2ed8:	80 78 07 00          	cmp    BYTE PTR [rax+0x7],0x0
    2edc:	75 c1                	jne    2e9f <error_at_line@@Base+0x884>
    2ede:	80 3b 60             	cmp    BYTE PTR [rbx],0x60
    2ee1:	48 8d 05 4b 42 00 00 	lea    rax,[rip+0x424b]        # 7133 <error_at_line@@Base+0x4b18>
    2ee8:	48 8d 15 4b 42 00 00 	lea    rdx,[rip+0x424b]        # 713a <error_at_line@@Base+0x4b1f>
    2eef:	48 0f 44 c2          	cmove  rax,rdx
    2ef3:	48 83 c4 08          	add    rsp,0x8
    2ef7:	5b                   	pop    rbx
    2ef8:	5d                   	pop    rbp
    2ef9:	c3                   	ret
    2efa:	66 0f 1f 44 00 00    	nop    WORD PTR [rax+rax*1+0x0]
    2f00:	41 57                	push   r15
    2f02:	49 89 cb             	mov    r11,rcx
    2f05:	49 89 ff             	mov    r15,rdi
    2f08:	41 56                	push   r14
    2f0a:	49 89 f6             	mov    r14,rsi
    2f0d:	41 55                	push   r13
    2f0f:	41 54                	push   r12
    2f11:	55                   	push   rbp
    2f12:	53                   	push   rbx
    2f13:	48 81 ec b8 00 00 00 	sub    rsp,0xb8
    2f1a:	48 8b 84 24 f0 00 00 	mov    rax,QWORD PTR [rsp+0xf0]
    2f21:	00 
    2f22:	48 89 54 24 08       	mov    QWORD PTR [rsp+0x8],rdx
    2f27:	44 89 44 24 34       	mov    DWORD PTR [rsp+0x34],r8d
    2f2c:	4c 8b a4 24 f8 00 00 	mov    r12,QWORD PTR [rsp+0xf8]
    2f33:	00 
    2f34:	44 89 4c 24 68       	mov    DWORD PTR [rsp+0x68],r9d
    2f39:	48 89 44 24 20       	mov    QWORD PTR [rsp+0x20],rax
    2f3e:	64 4c 8b 2c 25 28 00 	mov    r13,QWORD PTR fs:0x28
    2f45:	00 00 
    2f47:	4c 89 ac 24 a8 00 00 	mov    QWORD PTR [rsp+0xa8],r13
    2f4e:	00 
    2f4f:	4c 8b ac 24 00 01 00 	mov    r13,QWORD PTR [rsp+0x100]
    2f56:	00 
    2f57:	4c 89 a4 24 88 00 00 	mov    QWORD PTR [rsp+0x88],r12
    2f5e:	00 
    2f5f:	4c 89 ac 24 80 00 00 	mov    QWORD PTR [rsp+0x80],r13
    2f66:	00 
    2f67:	66 0f 1f 84 00 00 00 	nop    WORD PTR [rax+rax*1+0x0]
    2f6e:	00 00 
    2f70:	4c 89 5c 24 18       	mov    QWORD PTR [rsp+0x18],r11
    2f75:	e8 76 f1 ff ff       	call   20f0 <__ctype_get_mb_cur_max@plt>
    2f7a:	c6 44 24 30 01       	mov    BYTE PTR [rsp+0x30],0x1
    2f7f:	4c 8b 6c 24 18       	mov    r13,QWORD PTR [rsp+0x18]
    2f84:	48 89 44 24 60       	mov    QWORD PTR [rsp+0x60],rax
    2f89:	8b 44 24 68          	mov    eax,DWORD PTR [rsp+0x68]
    2f8d:	c6 44 24 6e 00       	mov    BYTE PTR [rsp+0x6e],0x0
    2f92:	d1 e8                	shr    eax,1
    2f94:	c6 44 24 32 00       	mov    BYTE PTR [rsp+0x32],0x0
    2f99:	48 c7 44 24 28 00 00 	mov    QWORD PTR [rsp+0x28],0x0
    2fa0:	00 00 
    2fa2:	83 e0 01             	and    eax,0x1
    2fa5:	88 44 24 17          	mov    BYTE PTR [rsp+0x17],al
    2fa9:	48 c7 44 24 50 00 00 	mov    QWORD PTR [rsp+0x50],0x0
    2fb0:	00 00 
    2fb2:	48 c7 44 24 58 00 00 	mov    QWORD PTR [rsp+0x58],0x0
    2fb9:	00 00 
    2fbb:	8b 44 24 34          	mov    eax,DWORD PTR [rsp+0x34]
    2fbf:	83 f8 0a             	cmp    eax,0xa
    2fc2:	0f 87 f9 f6 ff ff    	ja     26c1 <error_at_line@@Base+0xa6>
    2fc8:	48 8d 3d 91 47 00 00 	lea    rdi,[rip+0x4791]        # 7760 <error_at_line@@Base+0x5145>
    2fcf:	48 63 04 87          	movsxd rax,DWORD PTR [rdi+rax*4]
    2fd3:	48 01 f8             	add    rax,rdi
    2fd6:	3e ff e0             	notrack jmp rax
    2fd9:	0f 1f 80 00 00 00 00 	nop    DWORD PTR [rax+0x0]
    2fe0:	83 7c 24 34 0a       	cmp    DWORD PTR [rsp+0x34],0xa
    2fe5:	74 57                	je     303e <error_at_line@@Base+0xa23>
    2fe7:	48 8d 2d 54 41 00 00 	lea    rbp,[rip+0x4154]        # 7142 <error_at_line@@Base+0x4b27>
    2fee:	48 8d 1d f8 40 00 00 	lea    rbx,[rip+0x40f8]        # 70ed <error_at_line@@Base+0x4ad2>
    2ff5:	ba 05 00 00 00       	mov    edx,0x5
    2ffa:	48 89 ee             	mov    rsi,rbp
    2ffd:	48 89 df             	mov    rdi,rbx
    3000:	e8 db f0 ff ff       	call   20e0 <dcgettext@plt>
    3005:	48 89 84 24 88 00 00 	mov    QWORD PTR [rsp+0x88],rax
    300c:	00 
    300d:	48 39 e8             	cmp    rax,rbp
    3010:	0f 84 24 16 00 00    	je     463a <error_at_line@@Base+0x201f>
    3016:	48 8d 2d 1b 41 00 00 	lea    rbp,[rip+0x411b]        # 7138 <error_at_line@@Base+0x4b1d>
    301d:	ba 05 00 00 00       	mov    edx,0x5
    3022:	48 89 df             	mov    rdi,rbx
    3025:	48 89 ee             	mov    rsi,rbp
    3028:	e8 b3 f0 ff ff       	call   20e0 <dcgettext@plt>
    302d:	48 89 84 24 80 00 00 	mov    QWORD PTR [rsp+0x80],rax
    3034:	00 
    3035:	48 39 e8             	cmp    rax,rbp
    3038:	0f 84 e3 15 00 00    	je     4621 <error_at_line@@Base+0x2006>
    303e:	31 db                	xor    ebx,ebx
    3040:	80 7c 24 17 00       	cmp    BYTE PTR [rsp+0x17],0x0
    3045:	0f 84 66 15 00 00    	je     45b1 <error_at_line@@Base+0x1f96>
    304b:	48 8b ac 24 80 00 00 	mov    rbp,QWORD PTR [rsp+0x80]
    3052:	00 
    3053:	48 89 ef             	mov    rdi,rbp
    3056:	e8 a5 f0 ff ff       	call   2100 <strlen@plt>
    305b:	48 89 6c 24 50       	mov    QWORD PTR [rsp+0x50],rbp
    3060:	48 83 f8 01          	cmp    rax,0x1
    3064:	48 89 44 24 28       	mov    QWORD PTR [rsp+0x28],rax
    3069:	c6 44 24 33 00       	mov    BYTE PTR [rsp+0x33],0x0
    306e:	c6 44 24 6c 00       	mov    BYTE PTR [rsp+0x6c],0x0
    3073:	c6 44 24 31 00       	mov    BYTE PTR [rsp+0x31],0x0
    3078:	c6 44 24 6f 01       	mov    BYTE PTR [rsp+0x6f],0x1
    307d:	c6 44 24 32 01       	mov    BYTE PTR [rsp+0x32],0x1
    3082:	0f 95 44 24 6d       	setne  BYTE PTR [rsp+0x6d]
    3087:	48 85 c0             	test   rax,rax
    308a:	0f 95 44 24 18       	setne  BYTE PTR [rsp+0x18]
    308f:	90                   	nop
    3090:	45 31 d2             	xor    r10d,r10d
    3093:	45 31 e4             	xor    r12d,r12d
    3096:	4d 89 f8             	mov    r8,r15
    3099:	4d 39 e5             	cmp    r13,r12
    309c:	41 0f 95 c7          	setne  r15b
    30a0:	49 83 fd ff          	cmp    r13,0xffffffffffffffff
    30a4:	0f 84 1e 01 00 00    	je     31c8 <error_at_line@@Base+0xbad>
    30aa:	66 0f 1f 44 00 00    	nop    WORD PTR [rax+rax*1+0x0]
    30b0:	45 84 ff             	test   r15b,r15b
    30b3:	0f 84 2d 01 00 00    	je     31e6 <error_at_line@@Base+0xbcb>
    30b9:	48 8b 44 24 08       	mov    rax,QWORD PTR [rsp+0x8]
    30be:	80 7c 24 18 00       	cmp    BYTE PTR [rsp+0x18],0x0
    30c3:	4e 8d 0c 20          	lea    r9,[rax+r12*1]
    30c7:	0f 85 63 07 00 00    	jne    3830 <error_at_line@@Base+0x1215>
    30cd:	41 0f b6 29          	movzx  ebp,BYTE PTR [r9]
    30d1:	40 80 fd 3f          	cmp    bpl,0x3f
    30d5:	0f 8f 05 0b 00 00    	jg     3be0 <error_at_line@@Base+0x15c5>
    30db:	40 84 ed             	test   bpl,bpl
    30de:	0f 88 6c 01 00 00    	js     3250 <error_at_line@@Base+0xc35>
    30e4:	40 80 fd 3f          	cmp    bpl,0x3f
    30e8:	0f 87 62 01 00 00    	ja     3250 <error_at_line@@Base+0xc35>
    30ee:	48 8d 0d 97 46 00 00 	lea    rcx,[rip+0x4697]        # 778c <error_at_line@@Base+0x5171>
    30f5:	40 0f b6 c5          	movzx  eax,bpl
    30f9:	48 63 04 81          	movsxd rax,DWORD PTR [rcx+rax*4]
    30fd:	48 01 c8             	add    rax,rcx
    3100:	3e ff e0             	notrack jmp rax
    3103:	0f 1f 44 00 00       	nop    DWORD PTR [rax+rax*1+0x0]
    3108:	80 7c 24 33 00       	cmp    BYTE PTR [rsp+0x33],0x0
    310d:	0f 85 9d 0d 00 00    	jne    3eb0 <error_at_line@@Base+0x1895>
    3113:	48 83 7c 24 20 00    	cmp    QWORD PTR [rsp+0x20],0x0
    3119:	0f 84 e1 0c 00 00    	je     3e00 <error_at_line@@Base+0x17e5>
    311f:	45 31 db             	xor    r11d,r11d
    3122:	44 89 fe             	mov    esi,r15d
    3125:	89 e8                	mov    eax,ebp
    3127:	89 e9                	mov    ecx,ebp
    3129:	c0 e8 05             	shr    al,0x5
    312c:	83 e1 1f             	and    ecx,0x1f
    312f:	0f b6 c0             	movzx  eax,al
    3132:	48 c1 e0 02          	shl    rax,0x2
    3136:	48 8b 7c 24 20       	mov    rdi,QWORD PTR [rsp+0x20]
    313b:	8b 04 07             	mov    eax,DWORD PTR [rdi+rax*1]
    313e:	0f a3 c8             	bt     eax,ecx
    3141:	0f 83 90 01 00 00    	jae    32d7 <error_at_line@@Base+0xcbc>
    3147:	80 7c 24 17 00       	cmp    BYTE PTR [rsp+0x17],0x0
    314c:	0f 85 97 0c 00 00    	jne    3de9 <error_at_line@@Base+0x17ce>
    3152:	49 8d 54 24 01       	lea    rdx,[r12+0x1]
    3157:	40 20 74 24 30       	and    BYTE PTR [rsp+0x30],sil
    315c:	44 89 d0             	mov    eax,r10d
    315f:	49 89 d4             	mov    r12,rdx
    3162:	83 f0 01             	xor    eax,0x1
    3165:	22 44 24 31          	and    al,BYTE PTR [rsp+0x31]
    3169:	84 c0                	test   al,al
    316b:	74 2f                	je     319c <error_at_line@@Base+0xb81>
    316d:	4c 39 f3             	cmp    rbx,r14
    3170:	73 05                	jae    3177 <error_at_line@@Base+0xb5c>
    3172:	41 c6 04 18 27       	mov    BYTE PTR [r8+rbx*1],0x27
    3177:	48 8d 43 01          	lea    rax,[rbx+0x1]
    317b:	4c 39 f0             	cmp    rax,r14
    317e:	73 06                	jae    3186 <error_at_line@@Base+0xb6b>
    3180:	41 c6 44 18 01 24    	mov    BYTE PTR [r8+rbx*1+0x1],0x24
    3186:	48 8d 43 02          	lea    rax,[rbx+0x2]
    318a:	4c 39 f0             	cmp    rax,r14
    318d:	73 06                	jae    3195 <error_at_line@@Base+0xb7a>
    318f:	41 c6 44 18 02 27    	mov    BYTE PTR [r8+rbx*1+0x2],0x27
    3195:	48 83 c3 03          	add    rbx,0x3
    3199:	45 89 fa             	mov    r10d,r15d
    319c:	4c 39 f3             	cmp    rbx,r14
    319f:	73 05                	jae    31a6 <error_at_line@@Base+0xb8b>
    31a1:	41 c6 04 18 5c       	mov    BYTE PTR [r8+rbx*1],0x5c
    31a6:	48 83 c3 01          	add    rbx,0x1
    31aa:	4c 39 f3             	cmp    rbx,r14
    31ad:	73 04                	jae    31b3 <error_at_line@@Base+0xb98>
    31af:	41 88 2c 18          	mov    BYTE PTR [r8+rbx*1],bpl
    31b3:	48 83 c3 01          	add    rbx,0x1
    31b7:	4d 39 e5             	cmp    r13,r12
    31ba:	41 0f 95 c7          	setne  r15b
    31be:	49 83 fd ff          	cmp    r13,0xffffffffffffffff
    31c2:	0f 85 e8 fe ff ff    	jne    30b0 <error_at_line@@Base+0xa95>
    31c8:	48 8b 44 24 08       	mov    rax,QWORD PTR [rsp+0x8]
    31cd:	49 c7 c5 ff ff ff ff 	mov    r13,0xffffffffffffffff
    31d4:	42 80 3c 20 00       	cmp    BYTE PTR [rax+r12*1],0x0
    31d9:	41 0f 95 c7          	setne  r15b
    31dd:	45 84 ff             	test   r15b,r15b
    31e0:	0f 85 d3 fe ff ff    	jne    30b9 <error_at_line@@Base+0xa9e>
    31e6:	4d 89 c7             	mov    r15,r8
    31e9:	48 85 db             	test   rbx,rbx
    31ec:	0f 85 06 0f 00 00    	jne    40f8 <error_at_line@@Base+0x1add>
    31f2:	80 7c 24 31 00       	cmp    BYTE PTR [rsp+0x31],0x0
    31f7:	0f 84 fb 0e 00 00    	je     40f8 <error_at_line@@Base+0x1add>
    31fd:	80 7c 24 17 00       	cmp    BYTE PTR [rsp+0x17],0x0
    3202:	0f 85 27 01 00 00    	jne    332f <error_at_line@@Base+0xd14>
    3208:	80 7c 24 6e 00       	cmp    BYTE PTR [rsp+0x6e],0x0
    320d:	0f 84 b6 14 00 00    	je     46c9 <error_at_line@@Base+0x20ae>
    3213:	80 7c 24 30 00       	cmp    BYTE PTR [rsp+0x30],0x0
    3218:	0f 85 d1 14 00 00    	jne    46ef <error_at_line@@Base+0x20d4>
    321e:	4d 85 f6             	test   r14,r14
    3221:	0f 94 c0             	sete   al
    3224:	48 83 7c 24 58 00    	cmp    QWORD PTR [rsp+0x58],0x0
    322a:	0f 95 c2             	setne  dl
    322d:	20 d0                	and    al,dl
    322f:	0f 84 a7 14 00 00    	je     46dc <error_at_line@@Base+0x20c1>
    3235:	88 44 24 6e          	mov    BYTE PTR [rsp+0x6e],al
    3239:	4c 8b 74 24 58       	mov    r14,QWORD PTR [rsp+0x58]
    323e:	c6 44 24 17 00       	mov    BYTE PTR [rsp+0x17],0x0
    3243:	e9 73 fd ff ff       	jmp    2fbb <error_at_line@@Base+0x9a0>
    3248:	0f 1f 84 00 00 00 00 	nop    DWORD PTR [rax+rax*1+0x0]
    324f:	00 
    3250:	45 31 db             	xor    r11d,r11d
    3253:	48 83 7c 24 60 01    	cmp    QWORD PTR [rsp+0x60],0x1
    3259:	0f 85 cb 06 00 00    	jne    392a <error_at_line@@Base+0x130f>
    325f:	4c 89 44 24 48       	mov    QWORD PTR [rsp+0x48],r8
    3264:	44 88 54 24 40       	mov    BYTE PTR [rsp+0x40],r10b
    3269:	44 88 5c 24 38       	mov    BYTE PTR [rsp+0x38],r11b
    326e:	e8 6d f0 ff ff       	call   22e0 <__ctype_b_loc@plt>
    3273:	44 0f b6 5c 24 38    	movzx  r11d,BYTE PTR [rsp+0x38]
    3279:	44 0f b6 54 24 40    	movzx  r10d,BYTE PTR [rsp+0x40]
    327f:	b9 01 00 00 00       	mov    ecx,0x1
    3284:	48 89 c2             	mov    rdx,rax
    3287:	40 0f b6 c5          	movzx  eax,bpl
    328b:	4c 8b 44 24 48       	mov    r8,QWORD PTR [rsp+0x48]
    3290:	48 8b 12             	mov    rdx,QWORD PTR [rdx]
    3293:	0f b7 34 42          	movzx  esi,WORD PTR [rdx+rax*2]
    3297:	66 81 e6 00 40       	and    si,0x4000
    329c:	66 c1 ee 0e          	shr    si,0xe
    32a0:	89 f0                	mov    eax,esi
    32a2:	83 f0 01             	xor    eax,0x1
    32a5:	22 44 24 32          	and    al,BYTE PTR [rsp+0x32]
    32a9:	84 c0                	test   al,al
    32ab:	0f 85 27 0d 00 00    	jne    3fd8 <error_at_line@@Base+0x19bd>
    32b1:	66 66 2e 0f 1f 84 00 	data16 cs nop WORD PTR [rax+rax*1+0x0]
    32b8:	00 00 00 00 
    32bc:	0f 1f 40 00          	nop    DWORD PTR [rax+0x0]
    32c0:	80 7c 24 33 00       	cmp    BYTE PTR [rsp+0x33],0x0
    32c5:	0f 85 1b 01 00 00    	jne    33e6 <error_at_line@@Base+0xdcb>
    32cb:	48 83 7c 24 20 00    	cmp    QWORD PTR [rsp+0x20],0x0
    32d1:	0f 85 4e fe ff ff    	jne    3125 <error_at_line@@Base+0xb0a>
    32d7:	31 c0                	xor    eax,eax
    32d9:	45 84 db             	test   r11b,r11b
    32dc:	0f 85 65 fe ff ff    	jne    3147 <error_at_line@@Base+0xb2c>
    32e2:	40 20 74 24 30       	and    BYTE PTR [rsp+0x30],sil
    32e7:	83 f0 01             	xor    eax,0x1
    32ea:	49 83 c4 01          	add    r12,0x1
    32ee:	44 21 d0             	and    eax,r10d
    32f1:	84 c0                	test   al,al
    32f3:	0f 84 b1 fe ff ff    	je     31aa <error_at_line@@Base+0xb8f>
    32f9:	4c 39 f3             	cmp    rbx,r14
    32fc:	73 05                	jae    3303 <error_at_line@@Base+0xce8>
    32fe:	41 c6 04 18 27       	mov    BYTE PTR [r8+rbx*1],0x27
    3303:	48 8d 43 01          	lea    rax,[rbx+0x1]
    3307:	4c 39 f0             	cmp    rax,r14
    330a:	73 06                	jae    3312 <error_at_line@@Base+0xcf7>
    330c:	41 c6 44 18 01 27    	mov    BYTE PTR [r8+rbx*1+0x1],0x27
    3312:	48 83 c3 02          	add    rbx,0x2
    3316:	45 31 d2             	xor    r10d,r10d
    3319:	e9 8c fe ff ff       	jmp    31aa <error_at_line@@Base+0xb8f>
    331e:	66 90                	xchg   ax,ax
    3320:	45 31 db             	xor    r11d,r11d
    3323:	31 f6                	xor    esi,esi
    3325:	80 7c 24 6c 00       	cmp    BYTE PTR [rsp+0x6c],0x0
    332a:	74 94                	je     32c0 <error_at_line@@Base+0xca5>
    332c:	4d 89 c7             	mov    r15,r8
    332f:	c7 44 24 34 02 00 00 	mov    DWORD PTR [rsp+0x34],0x2
    3336:	00 
    3337:	4d 89 eb             	mov    r11,r13
    333a:	66 0f 1f 44 00 00    	nop    WORD PTR [rax+rax*1+0x0]
    3340:	80 7c 24 32 00       	cmp    BYTE PTR [rsp+0x32],0x0
    3345:	b8 04 00 00 00       	mov    eax,0x4
    334a:	0f 44 44 24 34       	cmove  eax,DWORD PTR [rsp+0x34]
    334f:	89 44 24 34          	mov    DWORD PTR [rsp+0x34],eax
    3353:	83 64 24 68 fd       	and    DWORD PTR [rsp+0x68],0xfffffffd
    3358:	48 c7 44 24 20 00 00 	mov    QWORD PTR [rsp+0x20],0x0
    335f:	00 00 
    3361:	e9 0a fc ff ff       	jmp    2f70 <error_at_line@@Base+0x955>
    3366:	66 2e 0f 1f 84 00 00 	cs nop WORD PTR [rax+rax*1+0x0]
    336d:	00 00 00 
    3370:	ba 0c 00 00 00       	mov    edx,0xc
    3375:	45 31 db             	xor    r11d,r11d
    3378:	bd 66 00 00 00       	mov    ebp,0x66
    337d:	0f 1f 00             	nop    DWORD PTR [rax]
    3380:	31 f6                	xor    esi,esi
    3382:	80 7c 24 32 00       	cmp    BYTE PTR [rsp+0x32],0x0
    3387:	0f 85 ba fd ff ff    	jne    3147 <error_at_line@@Base+0xb2c>
    338d:	80 7c 24 17 00       	cmp    BYTE PTR [rsp+0x17],0x0
    3392:	74 5c                	je     33f0 <error_at_line@@Base+0xdd5>
    3394:	48 83 7c 24 20 00    	cmp    QWORD PTR [rsp+0x20],0x0
    339a:	0f 84 40 0a 00 00    	je     3de0 <error_at_line@@Base+0x17c5>
    33a0:	89 d0                	mov    eax,edx
    33a2:	89 d1                	mov    ecx,edx
    33a4:	89 d5                	mov    ebp,edx
    33a6:	c0 e8 05             	shr    al,0x5
    33a9:	83 e1 1f             	and    ecx,0x1f
    33ac:	0f b6 c0             	movzx  eax,al
    33af:	48 c1 e0 02          	shl    rax,0x2
    33b3:	e9 7e fd ff ff       	jmp    3136 <error_at_line@@Base+0xb1b>
    33b8:	0f 1f 84 00 00 00 00 	nop    DWORD PTR [rax+rax*1+0x0]
    33bf:	00 
    33c0:	83 7c 24 34 02       	cmp    DWORD PTR [rsp+0x34],0x2
    33c5:	0f 84 25 0b 00 00    	je     3ef0 <error_at_line@@Base+0x18d5>
    33cb:	45 31 db             	xor    r11d,r11d
    33ce:	80 7c 24 33 00       	cmp    BYTE PTR [rsp+0x33],0x0
    33d3:	44 88 7c 24 6e       	mov    BYTE PTR [rsp+0x6e],r15b
    33d8:	44 89 fe             	mov    esi,r15d
    33db:	bd 27 00 00 00       	mov    ebp,0x27
    33e0:	0f 84 e5 fe ff ff    	je     32cb <error_at_line@@Base+0xcb0>
    33e6:	89 ea                	mov    edx,ebp
    33e8:	80 7c 24 17 00       	cmp    BYTE PTR [rsp+0x17],0x0
    33ed:	75 a5                	jne    3394 <error_at_line@@Base+0xd79>
    33ef:	90                   	nop
    33f0:	31 c0                	xor    eax,eax
    33f2:	40 20 74 24 30       	and    BYTE PTR [rsp+0x30],sil
    33f7:	49 83 c4 01          	add    r12,0x1
    33fb:	45 84 db             	test   r11b,r11b
    33fe:	0f 84 cc 01 00 00    	je     35d0 <error_at_line@@Base+0xfb5>
    3404:	44 89 d0             	mov    eax,r10d
    3407:	89 d5                	mov    ebp,edx
    3409:	83 f0 01             	xor    eax,0x1
    340c:	22 44 24 31          	and    al,BYTE PTR [rsp+0x31]
    3410:	e9 54 fd ff ff       	jmp    3169 <error_at_line@@Base+0xb4e>
    3415:	0f 1f 00             	nop    DWORD PTR [rax]
    3418:	ba 0b 00 00 00       	mov    edx,0xb
    341d:	45 31 db             	xor    r11d,r11d
    3420:	bd 76 00 00 00       	mov    ebp,0x76
    3425:	e9 56 ff ff ff       	jmp    3380 <error_at_line@@Base+0xd65>
    342a:	66 0f 1f 44 00 00    	nop    WORD PTR [rax+rax*1+0x0]
    3430:	ba 08 00 00 00       	mov    edx,0x8
    3435:	45 31 db             	xor    r11d,r11d
    3438:	bd 62 00 00 00       	mov    ebp,0x62
    343d:	e9 3e ff ff ff       	jmp    3380 <error_at_line@@Base+0xd65>
    3442:	80 7c 24 32 00       	cmp    BYTE PTR [rsp+0x32],0x0
    3447:	0f 85 ab 08 00 00    	jne    3cf8 <error_at_line@@Base+0x16dd>
    344d:	f6 44 24 68 01       	test   BYTE PTR [rsp+0x68],0x1
    3452:	0f 85 54 0d 00 00    	jne    41ac <error_at_line@@Base+0x1b91>
    3458:	80 7c 24 17 00       	cmp    BYTE PTR [rsp+0x17],0x0
    345d:	0f 84 6e 0d 00 00    	je     41d1 <error_at_line@@Base+0x1bb6>
    3463:	48 83 7c 24 20 00    	cmp    QWORD PTR [rsp+0x20],0x0
    3469:	0f 84 08 0f 00 00    	je     4377 <error_at_line@@Base+0x1d5c>
    346f:	45 31 db             	xor    r11d,r11d
    3472:	31 f6                	xor    esi,esi
    3474:	31 d2                	xor    edx,edx
    3476:	e9 25 ff ff ff       	jmp    33a0 <error_at_line@@Base+0xd85>
    347b:	0f 1f 44 00 00       	nop    DWORD PTR [rax+rax*1+0x0]
    3480:	45 31 db             	xor    r11d,r11d
    3483:	ba 09 00 00 00       	mov    edx,0x9
    3488:	bd 74 00 00 00       	mov    ebp,0x74
    348d:	80 7c 24 6c 00       	cmp    BYTE PTR [rsp+0x6c],0x0
    3492:	0f 84 e8 fe ff ff    	je     3380 <error_at_line@@Base+0xd65>
    3498:	e9 8f fe ff ff       	jmp    332c <error_at_line@@Base+0xd11>
    349d:	0f 1f 00             	nop    DWORD PTR [rax]
    34a0:	45 31 db             	xor    r11d,r11d
    34a3:	ba 0d 00 00 00       	mov    edx,0xd
    34a8:	bd 72 00 00 00       	mov    ebp,0x72
    34ad:	eb de                	jmp    348d <error_at_line@@Base+0xe72>
    34af:	90                   	nop
    34b0:	80 7c 24 32 00       	cmp    BYTE PTR [rsp+0x32],0x0
    34b5:	0f 85 7b 0e 00 00    	jne    4336 <error_at_line@@Base+0x1d1b>
    34bb:	80 7c 24 17 00       	cmp    BYTE PTR [rsp+0x17],0x0
    34c0:	0f 84 94 0e 00 00    	je     435a <error_at_line@@Base+0x1d3f>
    34c6:	48 83 7c 24 20 00    	cmp    QWORD PTR [rsp+0x20],0x0
    34cc:	0f 84 35 11 00 00    	je     4607 <error_at_line@@Base+0x1fec>
    34d2:	45 31 db             	xor    r11d,r11d
    34d5:	31 f6                	xor    esi,esi
    34d7:	ba 07 00 00 00       	mov    edx,0x7
    34dc:	e9 bf fe ff ff       	jmp    33a0 <error_at_line@@Base+0xd85>
    34e1:	0f 1f 80 00 00 00 00 	nop    DWORD PTR [rax+0x0]
    34e8:	45 31 db             	xor    r11d,r11d
    34eb:	83 7c 24 34 02       	cmp    DWORD PTR [rsp+0x34],0x2
    34f0:	0f 84 18 0e 00 00    	je     430e <error_at_line@@Base+0x1cf3>
    34f6:	83 7c 24 34 05       	cmp    DWORD PTR [rsp+0x34],0x5
    34fb:	0f 85 3f 09 00 00    	jne    3e40 <error_at_line@@Base+0x1825>
    3501:	f6 44 24 68 04       	test   BYTE PTR [rsp+0x68],0x4
    3506:	0f 84 34 09 00 00    	je     3e40 <error_at_line@@Base+0x1825>
    350c:	49 8d 4c 24 02       	lea    rcx,[r12+0x2]
    3511:	31 f6                	xor    esi,esi
    3513:	bd 3f 00 00 00       	mov    ebp,0x3f
    3518:	4c 39 e9             	cmp    rcx,r13
    351b:	0f 83 9f fd ff ff    	jae    32c0 <error_at_line@@Base+0xca5>
    3521:	48 8b 44 24 08       	mov    rax,QWORD PTR [rsp+0x8]
    3526:	42 80 7c 20 01 3f    	cmp    BYTE PTR [rax+r12*1+0x1],0x3f
    352c:	0f 85 8e fd ff ff    	jne    32c0 <error_at_line@@Base+0xca5>
    3532:	42 0f b6 54 20 02    	movzx  edx,BYTE PTR [rax+r12*1+0x2]
    3538:	80 fa 3e             	cmp    dl,0x3e
    353b:	0f 87 7f fd ff ff    	ja     32c0 <error_at_line@@Base+0xca5>
    3541:	48 b8 00 00 00 00 82 	movabs rax,0x7000a38200000000
    3548:	a3 00 70 
    354b:	48 0f a3 d0          	bt     rax,rdx
    354f:	40 0f 92 c6          	setb   sil
    3553:	40 84 f6             	test   sil,sil
    3556:	0f 84 64 fd ff ff    	je     32c0 <error_at_line@@Base+0xca5>
    355c:	80 7c 24 17 00       	cmp    BYTE PTR [rsp+0x17],0x0
    3561:	0f 85 e3 06 00 00    	jne    3c4a <error_at_line@@Base+0x162f>
    3567:	4c 39 f3             	cmp    rbx,r14
    356a:	73 05                	jae    3571 <error_at_line@@Base+0xf56>
    356c:	41 c6 04 18 3f       	mov    BYTE PTR [r8+rbx*1],0x3f
    3571:	48 8d 43 01          	lea    rax,[rbx+0x1]
    3575:	4c 39 f0             	cmp    rax,r14
    3578:	73 06                	jae    3580 <error_at_line@@Base+0xf65>
    357a:	41 c6 44 18 01 22    	mov    BYTE PTR [r8+rbx*1+0x1],0x22
    3580:	48 8d 43 02          	lea    rax,[rbx+0x2]
    3584:	4c 39 f0             	cmp    rax,r14
    3587:	73 06                	jae    358f <error_at_line@@Base+0xf74>
    3589:	41 c6 44 18 02 22    	mov    BYTE PTR [r8+rbx*1+0x2],0x22
    358f:	48 8d 43 03          	lea    rax,[rbx+0x3]
    3593:	4c 39 f0             	cmp    rax,r14
    3596:	73 06                	jae    359e <error_at_line@@Base+0xf83>
    3598:	41 c6 44 18 03 3f    	mov    BYTE PTR [r8+rbx*1+0x3],0x3f
    359e:	48 83 c3 04          	add    rbx,0x4
    35a2:	80 7c 24 32 00       	cmp    BYTE PTR [rsp+0x32],0x0
    35a7:	0f 85 d0 10 00 00    	jne    467d <error_at_line@@Base+0x2062>
    35ad:	49 89 cc             	mov    r12,rcx
    35b0:	c6 44 24 30 00       	mov    BYTE PTR [rsp+0x30],0x0
    35b5:	31 c0                	xor    eax,eax
    35b7:	49 83 c4 01          	add    r12,0x1
    35bb:	45 84 db             	test   r11b,r11b
    35be:	0f 85 40 fe ff ff    	jne    3404 <error_at_line@@Base+0xde9>
    35c4:	66 66 2e 0f 1f 84 00 	data16 cs nop WORD PTR [rax+rax*1+0x0]
    35cb:	00 00 00 00 
    35cf:	90                   	nop
    35d0:	83 f0 01             	xor    eax,0x1
    35d3:	89 d5                	mov    ebp,edx
    35d5:	44 21 d0             	and    eax,r10d
    35d8:	e9 14 fd ff ff       	jmp    32f1 <error_at_line@@Base+0xcd6>
    35dd:	45 31 db             	xor    r11d,r11d
    35e0:	ba 0a 00 00 00       	mov    edx,0xa
    35e5:	bd 6e 00 00 00       	mov    ebp,0x6e
    35ea:	e9 9e fe ff ff       	jmp    348d <error_at_line@@Base+0xe72>
    35ef:	45 31 db             	xor    r11d,r11d
    35f2:	bd 23 00 00 00       	mov    ebp,0x23
    35f7:	66 0f 1f 84 00 00 00 	nop    WORD PTR [rax+rax*1+0x0]
    35fe:	00 00 
    3600:	4d 85 e4             	test   r12,r12
    3603:	74 1b                	je     3620 <error_at_line@@Base+0x1005>
    3605:	31 f6                	xor    esi,esi
    3607:	e9 b4 fc ff ff       	jmp    32c0 <error_at_line@@Base+0xca5>
    360c:	45 31 db             	xor    r11d,r11d
    360f:	bd 20 00 00 00       	mov    ebp,0x20
    3614:	66 66 2e 0f 1f 84 00 	data16 cs nop WORD PTR [rax+rax*1+0x0]
    361b:	00 00 00 00 
    361f:	90                   	nop
    3620:	44 89 fe             	mov    esi,r15d
    3623:	e9 fd fc ff ff       	jmp    3325 <error_at_line@@Base+0xd0a>
    3628:	48 8d 05 07 3b 00 00 	lea    rax,[rip+0x3b07]        # 7136 <error_at_line@@Base+0x4b1b>
    362f:	c6 44 24 18 01       	mov    BYTE PTR [rsp+0x18],0x1
    3634:	31 db                	xor    ebx,ebx
    3636:	c6 44 24 33 00       	mov    BYTE PTR [rsp+0x33],0x0
    363b:	c6 44 24 6c 00       	mov    BYTE PTR [rsp+0x6c],0x0
    3640:	c6 44 24 31 00       	mov    BYTE PTR [rsp+0x31],0x0
    3645:	c6 44 24 6d 00       	mov    BYTE PTR [rsp+0x6d],0x0
    364a:	c6 44 24 6f 01       	mov    BYTE PTR [rsp+0x6f],0x1
    364f:	c6 44 24 17 01       	mov    BYTE PTR [rsp+0x17],0x1
    3654:	c6 44 24 32 01       	mov    BYTE PTR [rsp+0x32],0x1
    3659:	48 c7 44 24 28 01 00 	mov    QWORD PTR [rsp+0x28],0x1
    3660:	00 00 
    3662:	48 89 44 24 50       	mov    QWORD PTR [rsp+0x50],rax
    3667:	c7 44 24 34 05 00 00 	mov    DWORD PTR [rsp+0x34],0x5
    366e:	00 
    366f:	e9 1c fa ff ff       	jmp    3090 <error_at_line@@Base+0xa75>
    3674:	c6 44 24 18 00       	mov    BYTE PTR [rsp+0x18],0x0
    3679:	c6 44 24 33 01       	mov    BYTE PTR [rsp+0x33],0x1
    367e:	c6 44 24 6c 01       	mov    BYTE PTR [rsp+0x6c],0x1
    3683:	c6 44 24 31 01       	mov    BYTE PTR [rsp+0x31],0x1
    3688:	c6 44 24 6d 00       	mov    BYTE PTR [rsp+0x6d],0x0
    368d:	c6 44 24 6f 00       	mov    BYTE PTR [rsp+0x6f],0x0
    3692:	c6 44 24 17 01       	mov    BYTE PTR [rsp+0x17],0x1
    3697:	48 8d 05 9a 3a 00 00 	lea    rax,[rip+0x3a9a]        # 7138 <error_at_line@@Base+0x4b1d>
    369e:	c7 44 24 34 02 00 00 	mov    DWORD PTR [rsp+0x34],0x2
    36a5:	00 
    36a6:	31 db                	xor    ebx,ebx
    36a8:	48 c7 44 24 28 01 00 	mov    QWORD PTR [rsp+0x28],0x1
    36af:	00 00 
    36b1:	48 89 44 24 50       	mov    QWORD PTR [rsp+0x50],rax
    36b6:	e9 d5 f9 ff ff       	jmp    3090 <error_at_line@@Base+0xa75>
    36bb:	48 8b 44 24 28       	mov    rax,QWORD PTR [rsp+0x28]
    36c0:	c6 44 24 33 00       	mov    BYTE PTR [rsp+0x33],0x0
    36c5:	c6 44 24 6c 00       	mov    BYTE PTR [rsp+0x6c],0x0
    36ca:	48 83 f8 01          	cmp    rax,0x1
    36ce:	c6 44 24 31 00       	mov    BYTE PTR [rsp+0x31],0x0
    36d3:	0f 95 44 24 6d       	setne  BYTE PTR [rsp+0x6d]
    36d8:	48 85 c0             	test   rax,rax
    36db:	0f 95 44 24 18       	setne  BYTE PTR [rsp+0x18]
    36e0:	31 db                	xor    ebx,ebx
    36e2:	c6 44 24 6f 01       	mov    BYTE PTR [rsp+0x6f],0x1
    36e7:	c6 44 24 17 00       	mov    BYTE PTR [rsp+0x17],0x0
    36ec:	c6 44 24 32 01       	mov    BYTE PTR [rsp+0x32],0x1
    36f1:	e9 9a f9 ff ff       	jmp    3090 <error_at_line@@Base+0xa75>
    36f6:	0f b6 54 24 32       	movzx  edx,BYTE PTR [rsp+0x32]
    36fb:	48 8b 74 24 28       	mov    rsi,QWORD PTR [rsp+0x28]
    3700:	c6 44 24 6c 00       	mov    BYTE PTR [rsp+0x6c],0x0
    3705:	c6 44 24 31 00       	mov    BYTE PTR [rsp+0x31],0x0
    370a:	48 83 fe 01          	cmp    rsi,0x1
    370e:	89 d0                	mov    eax,edx
    3710:	88 54 24 6f          	mov    BYTE PTR [rsp+0x6f],dl
    3714:	0f 95 44 24 6d       	setne  BYTE PTR [rsp+0x6d]
    3719:	83 f0 01             	xor    eax,0x1
    371c:	48 85 f6             	test   rsi,rsi
    371f:	88 44 24 33          	mov    BYTE PTR [rsp+0x33],al
    3723:	0f 95 c0             	setne  al
    3726:	31 db                	xor    ebx,ebx
    3728:	21 d0                	and    eax,edx
    372a:	c6 44 24 17 00       	mov    BYTE PTR [rsp+0x17],0x0
    372f:	88 44 24 18          	mov    BYTE PTR [rsp+0x18],al
    3733:	e9 58 f9 ff ff       	jmp    3090 <error_at_line@@Base+0xa75>
    3738:	80 7c 24 17 00       	cmp    BYTE PTR [rsp+0x17],0x0
    373d:	0f 85 12 0e 00 00    	jne    4555 <error_at_line@@Base+0x1f3a>
    3743:	4d 85 f6             	test   r14,r14
    3746:	74 04                	je     374c <error_at_line@@Base+0x1131>
    3748:	41 c6 07 27          	mov    BYTE PTR [r15],0x27
    374c:	48 8d 05 e5 39 00 00 	lea    rax,[rip+0x39e5]        # 7138 <error_at_line@@Base+0x4b1d>
    3753:	c6 44 24 18 00       	mov    BYTE PTR [rsp+0x18],0x0
    3758:	bb 01 00 00 00       	mov    ebx,0x1
    375d:	c6 44 24 33 01       	mov    BYTE PTR [rsp+0x33],0x1
    3762:	c6 44 24 6c 00       	mov    BYTE PTR [rsp+0x6c],0x0
    3767:	c6 44 24 31 01       	mov    BYTE PTR [rsp+0x31],0x1
    376c:	c6 44 24 6d 00       	mov    BYTE PTR [rsp+0x6d],0x0
    3771:	c6 44 24 6f 00       	mov    BYTE PTR [rsp+0x6f],0x0
    3776:	c6 44 24 17 00       	mov    BYTE PTR [rsp+0x17],0x0
    377b:	48 c7 44 24 28 01 00 	mov    QWORD PTR [rsp+0x28],0x1
    3782:	00 00 
    3784:	48 89 44 24 50       	mov    QWORD PTR [rsp+0x50],rax
    3789:	c7 44 24 34 02 00 00 	mov    DWORD PTR [rsp+0x34],0x2
    3790:	00 
    3791:	e9 fa f8 ff ff       	jmp    3090 <error_at_line@@Base+0xa75>
    3796:	80 7c 24 17 00       	cmp    BYTE PTR [rsp+0x17],0x0
    379b:	0f 85 87 fe ff ff    	jne    3628 <error_at_line@@Base+0x100d>
    37a1:	4d 85 f6             	test   r14,r14
    37a4:	74 04                	je     37aa <error_at_line@@Base+0x118f>
    37a6:	41 c6 07 22          	mov    BYTE PTR [r15],0x22
    37aa:	48 8d 05 85 39 00 00 	lea    rax,[rip+0x3985]        # 7136 <error_at_line@@Base+0x4b1b>
    37b1:	c6 44 24 33 00       	mov    BYTE PTR [rsp+0x33],0x0
    37b6:	bb 01 00 00 00       	mov    ebx,0x1
    37bb:	c6 44 24 6c 00       	mov    BYTE PTR [rsp+0x6c],0x0
    37c0:	c6 44 24 31 00       	mov    BYTE PTR [rsp+0x31],0x0
    37c5:	c6 44 24 6d 00       	mov    BYTE PTR [rsp+0x6d],0x0
    37ca:	c6 44 24 18 01       	mov    BYTE PTR [rsp+0x18],0x1
    37cf:	c6 44 24 6f 01       	mov    BYTE PTR [rsp+0x6f],0x1
    37d4:	c6 44 24 32 01       	mov    BYTE PTR [rsp+0x32],0x1
    37d9:	48 c7 44 24 28 01 00 	mov    QWORD PTR [rsp+0x28],0x1
    37e0:	00 00 
    37e2:	48 89 44 24 50       	mov    QWORD PTR [rsp+0x50],rax
    37e7:	e9 a4 f8 ff ff       	jmp    3090 <error_at_line@@Base+0xa75>
    37ec:	80 7c 24 17 00       	cmp    BYTE PTR [rsp+0x17],0x0
    37f1:	0f 85 7d fe ff ff    	jne    3674 <error_at_line@@Base+0x1059>
    37f7:	c6 44 24 32 01       	mov    BYTE PTR [rsp+0x32],0x1
    37fc:	e9 42 ff ff ff       	jmp    3743 <error_at_line@@Base+0x1128>
    3801:	c6 44 24 18 00       	mov    BYTE PTR [rsp+0x18],0x0
    3806:	c6 44 24 33 01       	mov    BYTE PTR [rsp+0x33],0x1
    380b:	c6 44 24 6c 01       	mov    BYTE PTR [rsp+0x6c],0x1
    3810:	c6 44 24 31 01       	mov    BYTE PTR [rsp+0x31],0x1
    3815:	c6 44 24 6d 00       	mov    BYTE PTR [rsp+0x6d],0x0
    381a:	c6 44 24 6f 00       	mov    BYTE PTR [rsp+0x6f],0x0
    381f:	c6 44 24 17 01       	mov    BYTE PTR [rsp+0x17],0x1
    3824:	c6 44 24 32 01       	mov    BYTE PTR [rsp+0x32],0x1
    3829:	e9 69 fe ff ff       	jmp    3697 <error_at_line@@Base+0x107c>
    382e:	66 90                	xchg   ax,ax
    3830:	48 8b 44 24 28       	mov    rax,QWORD PTR [rsp+0x28]
    3835:	4a 8d 2c 20          	lea    rbp,[rax+r12*1]
    3839:	49 83 fd ff          	cmp    r13,0xffffffffffffffff
    383d:	75 33                	jne    3872 <error_at_line@@Base+0x1257>
    383f:	80 7c 24 6d 00       	cmp    BYTE PTR [rsp+0x6d],0x0
    3844:	74 2c                	je     3872 <error_at_line@@Base+0x1257>
    3846:	48 8b 7c 24 08       	mov    rdi,QWORD PTR [rsp+0x8]
    384b:	4c 89 44 24 48       	mov    QWORD PTR [rsp+0x48],r8
    3850:	44 88 54 24 40       	mov    BYTE PTR [rsp+0x40],r10b
    3855:	4c 89 4c 24 38       	mov    QWORD PTR [rsp+0x38],r9
    385a:	e8 a1 e8 ff ff       	call   2100 <strlen@plt>
    385f:	4c 8b 44 24 48       	mov    r8,QWORD PTR [rsp+0x48]
    3864:	44 0f b6 54 24 40    	movzx  r10d,BYTE PTR [rsp+0x40]
    386a:	4c 8b 4c 24 38       	mov    r9,QWORD PTR [rsp+0x38]
    386f:	49 89 c5             	mov    r13,rax
    3872:	49 39 ed             	cmp    r13,rbp
    3875:	0f 82 dd 03 00 00    	jb     3c58 <error_at_line@@Base+0x163d>
    387b:	48 8b 54 24 28       	mov    rdx,QWORD PTR [rsp+0x28]
    3880:	48 8b 74 24 50       	mov    rsi,QWORD PTR [rsp+0x50]
    3885:	4c 89 cf             	mov    rdi,r9
    3888:	4c 89 44 24 48       	mov    QWORD PTR [rsp+0x48],r8
    388d:	44 88 54 24 40       	mov    BYTE PTR [rsp+0x40],r10b
    3892:	4c 89 4c 24 38       	mov    QWORD PTR [rsp+0x38],r9
    3897:	e8 d4 e8 ff ff       	call   2170 <memcmp@plt>
    389c:	4c 8b 4c 24 38       	mov    r9,QWORD PTR [rsp+0x38]
    38a1:	44 0f b6 54 24 40    	movzx  r10d,BYTE PTR [rsp+0x40]
    38a7:	85 c0                	test   eax,eax
    38a9:	4c 8b 44 24 48       	mov    r8,QWORD PTR [rsp+0x48]
    38ae:	0f 85 dc 03 00 00    	jne    3c90 <error_at_line@@Base+0x1675>
    38b4:	80 7c 24 17 00       	cmp    BYTE PTR [rsp+0x17],0x0
    38b9:	0f 85 2c 09 00 00    	jne    41eb <error_at_line@@Base+0x1bd0>
    38bf:	41 0f b6 29          	movzx  ebp,BYTE PTR [r9]
    38c3:	40 80 fd 3f          	cmp    bpl,0x3f
    38c7:	0f 8f a3 06 00 00    	jg     3f70 <error_at_line@@Base+0x1955>
    38cd:	40 84 ed             	test   bpl,bpl
    38d0:	78 46                	js     3918 <error_at_line@@Base+0x12fd>
    38d2:	40 80 fd 3f          	cmp    bpl,0x3f
    38d6:	77 40                	ja     3918 <error_at_line@@Base+0x12fd>
    38d8:	48 8d 15 ad 3f 00 00 	lea    rdx,[rip+0x3fad]        # 788c <error_at_line@@Base+0x5271>
    38df:	40 0f b6 c5          	movzx  eax,bpl
    38e3:	48 63 04 82          	movsxd rax,DWORD PTR [rdx+rax*4]
    38e7:	48 01 d0             	add    rax,rdx
    38ea:	3e ff e0             	notrack jmp rax
    38ed:	0f 1f 00             	nop    DWORD PTR [rax]
    38f0:	80 7c 24 33 00       	cmp    BYTE PTR [rsp+0x33],0x0
    38f5:	0f 85 ab 0c 00 00    	jne    45a6 <error_at_line@@Base+0x1f8b>
    38fb:	0f b6 74 24 18       	movzx  esi,BYTE PTR [rsp+0x18]
    3900:	48 83 7c 24 20 00    	cmp    QWORD PTR [rsp+0x20],0x0
    3906:	41 89 f3             	mov    r11d,esi
    3909:	0f 85 16 f8 ff ff    	jne    3125 <error_at_line@@Base+0xb0a>
    390f:	e9 3e f8 ff ff       	jmp    3152 <error_at_line@@Base+0xb37>
    3914:	0f 1f 40 00          	nop    DWORD PTR [rax+0x0]
    3918:	48 83 7c 24 60 01    	cmp    QWORD PTR [rsp+0x60],0x1
    391e:	44 0f b6 5c 24 18    	movzx  r11d,BYTE PTR [rsp+0x18]
    3924:	0f 84 35 f9 ff ff    	je     325f <error_at_line@@Base+0xc44>
    392a:	48 c7 84 24 a0 00 00 	mov    QWORD PTR [rsp+0xa0],0x0
    3931:	00 00 00 00 00 
    3936:	48 8d 8c 24 a0 00 00 	lea    rcx,[rsp+0xa0]
    393d:	00 
    393e:	49 83 fd ff          	cmp    r13,0xffffffffffffffff
    3942:	75 41                	jne    3985 <error_at_line@@Base+0x136a>
    3944:	48 8b 7c 24 08       	mov    rdi,QWORD PTR [rsp+0x8]
    3949:	4c 89 44 24 78       	mov    QWORD PTR [rsp+0x78],r8
    394e:	44 88 54 24 70       	mov    BYTE PTR [rsp+0x70],r10b
    3953:	48 89 4c 24 48       	mov    QWORD PTR [rsp+0x48],rcx
    3958:	4c 89 4c 24 40       	mov    QWORD PTR [rsp+0x40],r9
    395d:	44 88 5c 24 38       	mov    BYTE PTR [rsp+0x38],r11b
    3962:	e8 99 e7 ff ff       	call   2100 <strlen@plt>
    3967:	4c 8b 44 24 78       	mov    r8,QWORD PTR [rsp+0x78]
    396c:	44 0f b6 54 24 70    	movzx  r10d,BYTE PTR [rsp+0x70]
    3972:	48 8b 4c 24 48       	mov    rcx,QWORD PTR [rsp+0x48]
    3977:	4c 8b 4c 24 40       	mov    r9,QWORD PTR [rsp+0x40]
    397c:	49 89 c5             	mov    r13,rax
    397f:	44 0f b6 5c 24 38    	movzx  r11d,BYTE PTR [rsp+0x38]
    3985:	4c 89 e8             	mov    rax,r13
    3988:	48 8d bc 24 9c 00 00 	lea    rdi,[rsp+0x9c]
    398f:	00 
    3990:	4c 89 ce             	mov    rsi,r9
    3993:	4c 89 44 24 48       	mov    QWORD PTR [rsp+0x48],r8
    3998:	4c 29 e0             	sub    rax,r12
    399b:	44 88 54 24 40       	mov    BYTE PTR [rsp+0x40],r10b
    39a0:	48 89 c2             	mov    rdx,rax
    39a3:	44 88 5c 24 38       	mov    BYTE PTR [rsp+0x38],r11b
    39a8:	48 89 44 24 78       	mov    QWORD PTR [rsp+0x78],rax
    39ad:	4c 89 4c 24 70       	mov    QWORD PTR [rsp+0x70],r9
    39b2:	e8 d9 29 00 00       	call   6390 <error_at_line@@Base+0x3d75>
    39b7:	44 0f b6 5c 24 38    	movzx  r11d,BYTE PTR [rsp+0x38]
    39bd:	44 0f b6 54 24 40    	movzx  r10d,BYTE PTR [rsp+0x40]
    39c3:	48 85 c0             	test   rax,rax
    39c6:	4c 8b 44 24 48       	mov    r8,QWORD PTR [rsp+0x48]
    39cb:	48 89 c1             	mov    rcx,rax
    39ce:	74 70                	je     3a40 <error_at_line@@Base+0x1425>
    39d0:	48 83 f8 ff          	cmp    rax,0xffffffffffffffff
    39d4:	4c 8b 4c 24 70       	mov    r9,QWORD PTR [rsp+0x70]
    39d9:	0f 84 db 08 00 00    	je     42ba <error_at_line@@Base+0x1c9f>
    39df:	48 83 f8 fe          	cmp    rax,0xfffffffffffffffe
    39e3:	0f 84 df 08 00 00    	je     42c8 <error_at_line@@Base+0x1cad>
    39e9:	80 7c 24 6c 00       	cmp    BYTE PTR [rsp+0x6c],0x0
    39ee:	0f 85 06 0a 00 00    	jne    43fa <error_at_line@@Base+0x1ddf>
    39f4:	8b bc 24 9c 00 00 00 	mov    edi,DWORD PTR [rsp+0x9c]
    39fb:	4c 89 44 24 70       	mov    QWORD PTR [rsp+0x70],r8
    3a00:	44 88 54 24 48       	mov    BYTE PTR [rsp+0x48],r10b
    3a05:	44 88 5c 24 38       	mov    BYTE PTR [rsp+0x38],r11b
    3a0a:	48 89 44 24 40       	mov    QWORD PTR [rsp+0x40],rax
    3a0f:	e8 bc e8 ff ff       	call   22d0 <iswprint@plt>
    3a14:	44 0f b6 5c 24 38    	movzx  r11d,BYTE PTR [rsp+0x38]
    3a1a:	48 8b 4c 24 40       	mov    rcx,QWORD PTR [rsp+0x40]
    3a1f:	85 c0                	test   eax,eax
    3a21:	44 0f b6 54 24 48    	movzx  r10d,BYTE PTR [rsp+0x48]
    3a27:	4c 8b 44 24 70       	mov    r8,QWORD PTR [rsp+0x70]
    3a2c:	0f 84 be 08 00 00    	je     42f0 <error_at_line@@Base+0x1cd5>
    3a32:	48 83 f9 01          	cmp    rcx,0x1
    3a36:	0f 85 17 0c 00 00    	jne    4653 <error_at_line@@Base+0x2038>
    3a3c:	0f 1f 40 00          	nop    DWORD PTR [rax+0x0]
    3a40:	44 89 fe             	mov    esi,r15d
    3a43:	e9 78 f8 ff ff       	jmp    32c0 <error_at_line@@Base+0xca5>
    3a48:	44 0f b6 5c 24 18    	movzx  r11d,BYTE PTR [rsp+0x18]
    3a4e:	31 f6                	xor    esi,esi
    3a50:	e9 d0 f8 ff ff       	jmp    3325 <error_at_line@@Base+0xd0a>
    3a55:	44 0f b6 5c 24 18    	movzx  r11d,BYTE PTR [rsp+0x18]
    3a5b:	bd 23 00 00 00       	mov    ebp,0x23
    3a60:	e9 9b fb ff ff       	jmp    3600 <error_at_line@@Base+0xfe5>
    3a65:	44 0f b6 5c 24 18    	movzx  r11d,BYTE PTR [rsp+0x18]
    3a6b:	bd 20 00 00 00       	mov    ebp,0x20
    3a70:	44 89 fe             	mov    esi,r15d
    3a73:	e9 ad f8 ff ff       	jmp    3325 <error_at_line@@Base+0xd0a>
    3a78:	44 0f b6 5c 24 18    	movzx  r11d,BYTE PTR [rsp+0x18]
    3a7e:	e9 20 fa ff ff       	jmp    34a3 <error_at_line@@Base+0xe88>
    3a83:	44 0f b6 5c 24 18    	movzx  r11d,BYTE PTR [rsp+0x18]
    3a89:	ba 0a 00 00 00       	mov    edx,0xa
    3a8e:	bd 6e 00 00 00       	mov    ebp,0x6e
    3a93:	e9 f5 f9 ff ff       	jmp    348d <error_at_line@@Base+0xe72>
    3a98:	44 0f b6 5c 24 18    	movzx  r11d,BYTE PTR [rsp+0x18]
    3a9e:	e9 e0 f9 ff ff       	jmp    3483 <error_at_line@@Base+0xe68>
    3aa3:	44 89 d0             	mov    eax,r10d
    3aa6:	44 0f b6 5c 24 18    	movzx  r11d,BYTE PTR [rsp+0x18]
    3aac:	83 f0 01             	xor    eax,0x1
    3aaf:	22 44 24 31          	and    al,BYTE PTR [rsp+0x31]
    3ab3:	0f 84 5d 02 00 00    	je     3d16 <error_at_line@@Base+0x16fb>
    3ab9:	0f 1f 80 00 00 00 00 	nop    DWORD PTR [rax+0x0]
    3ac0:	4c 39 f3             	cmp    rbx,r14
    3ac3:	73 05                	jae    3aca <error_at_line@@Base+0x14af>
    3ac5:	41 c6 04 18 27       	mov    BYTE PTR [r8+rbx*1],0x27
    3aca:	48 8d 53 01          	lea    rdx,[rbx+0x1]
    3ace:	4c 39 f2             	cmp    rdx,r14
    3ad1:	73 06                	jae    3ad9 <error_at_line@@Base+0x14be>
    3ad3:	41 c6 44 18 01 24    	mov    BYTE PTR [r8+rbx*1+0x1],0x24
    3ad9:	48 8d 53 02          	lea    rdx,[rbx+0x2]
    3add:	4c 39 f2             	cmp    rdx,r14
    3ae0:	73 06                	jae    3ae8 <error_at_line@@Base+0x14cd>
    3ae2:	41 c6 44 18 02 27    	mov    BYTE PTR [r8+rbx*1+0x2],0x27
    3ae8:	48 8d 53 03          	lea    rdx,[rbx+0x3]
    3aec:	48 83 c3 04          	add    rbx,0x4
    3af0:	4c 39 f2             	cmp    rdx,r14
    3af3:	0f 83 06 07 00 00    	jae    41ff <error_at_line@@Base+0x1be4>
    3af9:	41 c6 04 10 5c       	mov    BYTE PTR [r8+rdx*1],0x5c
    3afe:	49 83 c4 01          	add    r12,0x1
    3b02:	45 84 db             	test   r11b,r11b
    3b05:	0f 84 83 08 00 00    	je     438e <error_at_line@@Base+0x1d73>
    3b0b:	c6 44 24 30 00       	mov    BYTE PTR [rsp+0x30],0x0
    3b10:	45 89 da             	mov    r10d,r11d
    3b13:	bd 30 00 00 00       	mov    ebp,0x30
    3b18:	e9 7f f6 ff ff       	jmp    319c <error_at_line@@Base+0xb81>
    3b1d:	80 7c 24 32 00       	cmp    BYTE PTR [rsp+0x32],0x0
    3b22:	0f 85 ed 0b 00 00    	jne    4715 <error_at_line@@Base+0x20fa>
    3b28:	44 0f b6 5c 24 18    	movzx  r11d,BYTE PTR [rsp+0x18]
    3b2e:	31 f6                	xor    esi,esi
    3b30:	ba 08 00 00 00       	mov    edx,0x8
    3b35:	e9 b6 f8 ff ff       	jmp    33f0 <error_at_line@@Base+0xdd5>
    3b3a:	80 7c 24 32 00       	cmp    BYTE PTR [rsp+0x32],0x0
    3b3f:	0f 85 e1 0b 00 00    	jne    4726 <error_at_line@@Base+0x210b>
    3b45:	c6 44 24 30 00       	mov    BYTE PTR [rsp+0x30],0x0
    3b4a:	49 83 c4 01          	add    r12,0x1
    3b4e:	ba 07 00 00 00       	mov    edx,0x7
    3b53:	e9 ac f8 ff ff       	jmp    3404 <error_at_line@@Base+0xde9>
    3b58:	80 7c 24 32 00       	cmp    BYTE PTR [rsp+0x32],0x0
    3b5d:	0f 85 cf 0b 00 00    	jne    4732 <error_at_line@@Base+0x2117>
    3b63:	44 0f b6 5c 24 18    	movzx  r11d,BYTE PTR [rsp+0x18]
    3b69:	31 f6                	xor    esi,esi
    3b6b:	ba 0c 00 00 00       	mov    edx,0xc
    3b70:	e9 7b f8 ff ff       	jmp    33f0 <error_at_line@@Base+0xdd5>
    3b75:	80 7c 24 32 00       	cmp    BYTE PTR [rsp+0x32],0x0
    3b7a:	0f 85 84 0b 00 00    	jne    4704 <error_at_line@@Base+0x20e9>
    3b80:	44 0f b6 5c 24 18    	movzx  r11d,BYTE PTR [rsp+0x18]
    3b86:	31 f6                	xor    esi,esi
    3b88:	ba 0b 00 00 00       	mov    edx,0xb
    3b8d:	e9 5e f8 ff ff       	jmp    33f0 <error_at_line@@Base+0xdd5>
    3b92:	83 7c 24 34 02       	cmp    DWORD PTR [rsp+0x34],0x2
    3b97:	44 0f b6 5c 24 18    	movzx  r11d,BYTE PTR [rsp+0x18]
    3b9d:	0f 85 53 f9 ff ff    	jne    34f6 <error_at_line@@Base+0xedb>
    3ba3:	c6 44 24 30 00       	mov    BYTE PTR [rsp+0x30],0x0
    3ba8:	49 83 c4 01          	add    r12,0x1
    3bac:	ba 3f 00 00 00       	mov    edx,0x3f
    3bb1:	e9 4e f8 ff ff       	jmp    3404 <error_at_line@@Base+0xde9>
    3bb6:	83 7c 24 34 02       	cmp    DWORD PTR [rsp+0x34],0x2
    3bbb:	0f b6 44 24 18       	movzx  eax,BYTE PTR [rsp+0x18]
    3bc0:	0f 84 dc 0a 00 00    	je     46a2 <error_at_line@@Base+0x2087>
    3bc6:	88 44 24 6e          	mov    BYTE PTR [rsp+0x6e],al
    3bca:	41 89 c3             	mov    r11d,eax
    3bcd:	89 c6                	mov    esi,eax
    3bcf:	bd 27 00 00 00       	mov    ebp,0x27
    3bd4:	e9 e7 f6 ff ff       	jmp    32c0 <error_at_line@@Base+0xca5>
    3bd9:	0f 1f 80 00 00 00 00 	nop    DWORD PTR [rax+0x0]
    3be0:	40 80 fd 7a          	cmp    bpl,0x7a
    3be4:	0f 8f b6 01 00 00    	jg     3da0 <error_at_line@@Base+0x1785>
    3bea:	40 80 fd 40          	cmp    bpl,0x40
    3bee:	0f 84 5c f6 ff ff    	je     3250 <error_at_line@@Base+0xc35>
    3bf4:	8d 4d bf             	lea    ecx,[rbp-0x41]
    3bf7:	b8 01 00 00 00       	mov    eax,0x1
    3bfc:	48 be ff ff ff 53 ff 	movabs rsi,0x3ffffff53ffffff
    3c03:	ff ff 03 
    3c06:	48 d3 e0             	shl    rax,cl
    3c09:	48 85 f0             	test   rax,rsi
    3c0c:	0f 85 f6 f4 ff ff    	jne    3108 <error_at_line@@Base+0xaed>
    3c12:	a9 00 00 00 a4       	test   eax,0xa4000000
    3c17:	0f 85 03 f7 ff ff    	jne    3320 <error_at_line@@Base+0xd05>
    3c1d:	83 7c 24 34 02       	cmp    DWORD PTR [rsp+0x34],0x2
    3c22:	0f 84 28 02 00 00    	je     3e50 <error_at_line@@Base+0x1835>
    3c28:	80 7c 24 32 00       	cmp    BYTE PTR [rsp+0x32],0x0
    3c2d:	0f 84 8c 04 00 00    	je     40bf <error_at_line@@Base+0x1aa4>
    3c33:	80 7c 24 17 00       	cmp    BYTE PTR [rsp+0x17],0x0
    3c38:	0f 84 0b 06 00 00    	je     4249 <error_at_line@@Base+0x1c2e>
    3c3e:	48 83 7c 24 28 00    	cmp    QWORD PTR [rsp+0x28],0x0
    3c44:	0f 85 11 02 00 00    	jne    3e5b <error_at_line@@Base+0x1840>
    3c4a:	4d 89 c7             	mov    r15,r8
    3c4d:	4d 89 eb             	mov    r11,r13
    3c50:	e9 fe f6 ff ff       	jmp    3353 <error_at_line@@Base+0xd38>
    3c55:	0f 1f 00             	nop    DWORD PTR [rax]
    3c58:	41 0f b6 29          	movzx  ebp,BYTE PTR [r9]
    3c5c:	40 80 fd 3f          	cmp    bpl,0x3f
    3c60:	0f 8f aa 01 00 00    	jg     3e10 <error_at_line@@Base+0x17f5>
    3c66:	40 84 ed             	test   bpl,bpl
    3c69:	0f 88 e1 f5 ff ff    	js     3250 <error_at_line@@Base+0xc35>
    3c6f:	40 80 fd 3f          	cmp    bpl,0x3f
    3c73:	0f 87 d7 f5 ff ff    	ja     3250 <error_at_line@@Base+0xc35>
    3c79:	48 8d 35 0c 3d 00 00 	lea    rsi,[rip+0x3d0c]        # 798c <error_at_line@@Base+0x5371>
    3c80:	40 0f b6 c5          	movzx  eax,bpl
    3c84:	48 63 04 86          	movsxd rax,DWORD PTR [rsi+rax*4]
    3c88:	48 01 f0             	add    rax,rsi
    3c8b:	3e ff e0             	notrack jmp rax
    3c8e:	66 90                	xchg   ax,ax
    3c90:	41 0f b6 29          	movzx  ebp,BYTE PTR [r9]
    3c94:	40 80 fd 3f          	cmp    bpl,0x3f
    3c98:	7e cc                	jle    3c66 <error_at_line@@Base+0x164b>
    3c9a:	40 80 fd 7a          	cmp    bpl,0x7a
    3c9e:	0f 8f db 01 00 00    	jg     3e7f <error_at_line@@Base+0x1864>
    3ca4:	40 80 fd 40          	cmp    bpl,0x40
    3ca8:	0f 84 a2 f5 ff ff    	je     3250 <error_at_line@@Base+0xc35>
    3cae:	8d 4d bf             	lea    ecx,[rbp-0x41]
    3cb1:	b8 01 00 00 00       	mov    eax,0x1
    3cb6:	48 be ff ff ff 53 ff 	movabs rsi,0x3ffffff53ffffff
    3cbd:	ff ff 03 
    3cc0:	48 d3 e0             	shl    rax,cl
    3cc3:	48 85 f0             	test   rax,rsi
    3cc6:	0f 84 46 ff ff ff    	je     3c12 <error_at_line@@Base+0x15f7>
    3ccc:	0f 1f 40 00          	nop    DWORD PTR [rax+0x0]
    3cd0:	80 7c 24 33 00       	cmp    BYTE PTR [rsp+0x33],0x0
    3cd5:	0f 85 9d 05 00 00    	jne    4278 <error_at_line@@Base+0x1c5d>
    3cdb:	48 83 7c 24 20 00    	cmp    QWORD PTR [rsp+0x20],0x0
    3ce1:	0f 84 e9 03 00 00    	je     40d0 <error_at_line@@Base+0x1ab5>
    3ce7:	0f b6 74 24 18       	movzx  esi,BYTE PTR [rsp+0x18]
    3cec:	45 31 db             	xor    r11d,r11d
    3cef:	e9 31 f4 ff ff       	jmp    3125 <error_at_line@@Base+0xb0a>
    3cf4:	0f 1f 40 00          	nop    DWORD PTR [rax+0x0]
    3cf8:	80 7c 24 17 00       	cmp    BYTE PTR [rsp+0x17],0x0
    3cfd:	0f 85 e8 04 00 00    	jne    41eb <error_at_line@@Base+0x1bd0>
    3d03:	44 89 d0             	mov    eax,r10d
    3d06:	45 31 db             	xor    r11d,r11d
    3d09:	83 f0 01             	xor    eax,0x1
    3d0c:	22 44 24 31          	and    al,BYTE PTR [rsp+0x31]
    3d10:	0f 85 aa fd ff ff    	jne    3ac0 <error_at_line@@Base+0x14a5>
    3d16:	4c 39 f3             	cmp    rbx,r14
    3d19:	73 05                	jae    3d20 <error_at_line@@Base+0x1705>
    3d1b:	41 c6 04 18 5c       	mov    BYTE PTR [r8+rbx*1],0x5c
    3d20:	80 7c 24 6f 00       	cmp    BYTE PTR [rsp+0x6f],0x0
    3d25:	48 8d 4b 01          	lea    rcx,[rbx+0x1]
    3d29:	49 8d 54 24 01       	lea    rdx,[r12+0x1]
    3d2e:	0f 84 77 09 00 00    	je     46ab <error_at_line@@Base+0x2090>
    3d34:	4c 39 ea             	cmp    rdx,r13
    3d37:	73 1a                	jae    3d53 <error_at_line@@Base+0x1738>
    3d39:	48 8b 44 24 08       	mov    rax,QWORD PTR [rsp+0x8]
    3d3e:	42 0f b6 44 20 01    	movzx  eax,BYTE PTR [rax+r12*1+0x1]
    3d44:	88 44 24 38          	mov    BYTE PTR [rsp+0x38],al
    3d48:	83 e8 30             	sub    eax,0x30
    3d4b:	3c 09                	cmp    al,0x9
    3d4d:	0f 86 4d 06 00 00    	jbe    43a0 <error_at_line@@Base+0x1d85>
    3d53:	48 8b 44 24 20       	mov    rax,QWORD PTR [rsp+0x20]
    3d58:	48 85 c0             	test   rax,rax
    3d5b:	0f 84 3b 05 00 00    	je     429c <error_at_line@@Base+0x1c81>
    3d61:	31 f6                	xor    esi,esi
    3d63:	f6 40 06 01          	test   BYTE PTR [rax+0x6],0x1
    3d67:	0f 84 f9 04 00 00    	je     4266 <error_at_line@@Base+0x1c4b>
    3d6d:	48 89 cb             	mov    rbx,rcx
    3d70:	bd 30 00 00 00       	mov    ebp,0x30
    3d75:	e9 dd f3 ff ff       	jmp    3157 <error_at_line@@Base+0xb3c>
    3d7a:	45 31 db             	xor    r11d,r11d
    3d7d:	e9 7e f8 ff ff       	jmp    3600 <error_at_line@@Base+0xfe5>
    3d82:	45 31 db             	xor    r11d,r11d
    3d85:	44 89 fe             	mov    esi,r15d
    3d88:	e9 98 f5 ff ff       	jmp    3325 <error_at_line@@Base+0xd0a>
    3d8d:	89 ea                	mov    edx,ebp
    3d8f:	45 31 db             	xor    r11d,r11d
    3d92:	bd 6e 00 00 00       	mov    ebp,0x6e
    3d97:	e9 f1 f6 ff ff       	jmp    348d <error_at_line@@Base+0xe72>
    3d9c:	0f 1f 40 00          	nop    DWORD PTR [rax+0x0]
    3da0:	40 80 fd 7d          	cmp    bpl,0x7d
    3da4:	0f 84 e6 00 00 00    	je     3e90 <error_at_line@@Base+0x1875>
    3daa:	41 bb 00 00 00 00    	mov    r11d,0x0
    3db0:	7f 7e                	jg     3e30 <error_at_line@@Base+0x1815>
    3db2:	40 80 fd 7b          	cmp    bpl,0x7b
    3db6:	0f 85 92 fc ff ff    	jne    3a4e <error_at_line@@Base+0x1433>
    3dbc:	49 83 fd ff          	cmp    r13,0xffffffffffffffff
    3dc0:	0f 84 d7 00 00 00    	je     3e9d <error_at_line@@Base+0x1882>
    3dc6:	49 83 fd 01          	cmp    r13,0x1
    3dca:	0f 95 c0             	setne  al
    3dcd:	84 c0                	test   al,al
    3dcf:	0f 84 2b f8 ff ff    	je     3600 <error_at_line@@Base+0xfe5>
    3dd5:	31 f6                	xor    esi,esi
    3dd7:	e9 e4 f4 ff ff       	jmp    32c0 <error_at_line@@Base+0xca5>
    3ddc:	0f 1f 40 00          	nop    DWORD PTR [rax+0x0]
    3de0:	45 84 db             	test   r11b,r11b
    3de3:	0f 84 ee 00 00 00    	je     3ed7 <error_at_line@@Base+0x18bc>
    3de9:	0f b6 54 24 31       	movzx  edx,BYTE PTR [rsp+0x31]
    3dee:	4d 89 c7             	mov    r15,r8
    3df1:	20 54 24 32          	and    BYTE PTR [rsp+0x32],dl
    3df5:	4d 89 eb             	mov    r11,r13
    3df8:	e9 43 f5 ff ff       	jmp    3340 <error_at_line@@Base+0xd25>
    3dfd:	0f 1f 00             	nop    DWORD PTR [rax]
    3e00:	44 89 fe             	mov    esi,r15d
    3e03:	31 c0                	xor    eax,eax
    3e05:	e9 d8 f4 ff ff       	jmp    32e2 <error_at_line@@Base+0xcc7>
    3e0a:	66 0f 1f 44 00 00    	nop    WORD PTR [rax+rax*1+0x0]
    3e10:	40 80 fd 7a          	cmp    bpl,0x7a
    3e14:	0f 8e 8a fe ff ff    	jle    3ca4 <error_at_line@@Base+0x1689>
    3e1a:	40 80 fd 7d          	cmp    bpl,0x7d
    3e1e:	0f 84 e2 04 00 00    	je     4306 <error_at_line@@Base+0x1ceb>
    3e24:	45 31 db             	xor    r11d,r11d
    3e27:	40 80 fd 7d          	cmp    bpl,0x7d
    3e2b:	7e 85                	jle    3db2 <error_at_line@@Base+0x1797>
    3e2d:	0f 1f 00             	nop    DWORD PTR [rax]
    3e30:	40 80 fd 7e          	cmp    bpl,0x7e
    3e34:	0f 84 c6 f7 ff ff    	je     3600 <error_at_line@@Base+0xfe5>
    3e3a:	e9 14 f4 ff ff       	jmp    3253 <error_at_line@@Base+0xc38>
    3e3f:	90                   	nop
    3e40:	31 f6                	xor    esi,esi
    3e42:	bd 3f 00 00 00       	mov    ebp,0x3f
    3e47:	e9 74 f4 ff ff       	jmp    32c0 <error_at_line@@Base+0xca5>
    3e4c:	0f 1f 40 00          	nop    DWORD PTR [rax+0x0]
    3e50:	80 7c 24 17 00       	cmp    BYTE PTR [rsp+0x17],0x0
    3e55:	0f 85 05 01 00 00    	jne    3f60 <error_at_line@@Base+0x1945>
    3e5b:	49 83 c4 01          	add    r12,0x1
    3e5f:	45 84 d2             	test   r10b,r10b
    3e62:	0f 85 48 02 00 00    	jne    40b0 <error_at_line@@Base+0x1a95>
    3e68:	4c 39 f3             	cmp    rbx,r14
    3e6b:	0f 82 9d 03 00 00    	jb     420e <error_at_line@@Base+0x1bf3>
    3e71:	c6 44 24 30 00       	mov    BYTE PTR [rsp+0x30],0x0
    3e76:	48 83 c3 01          	add    rbx,0x1
    3e7a:	e9 1a f2 ff ff       	jmp    3099 <error_at_line@@Base+0xa7e>
    3e7f:	40 80 fd 7d          	cmp    bpl,0x7d
    3e83:	75 9f                	jne    3e24 <error_at_line@@Base+0x1809>
    3e85:	66 66 2e 0f 1f 84 00 	data16 cs nop WORD PTR [rax+rax*1+0x0]
    3e8c:	00 00 00 00 
    3e90:	45 31 db             	xor    r11d,r11d
    3e93:	49 83 fd ff          	cmp    r13,0xffffffffffffffff
    3e97:	0f 85 29 ff ff ff    	jne    3dc6 <error_at_line@@Base+0x17ab>
    3e9d:	48 8b 44 24 08       	mov    rax,QWORD PTR [rsp+0x8]
    3ea2:	80 78 01 00          	cmp    BYTE PTR [rax+0x1],0x0
    3ea6:	0f 95 c0             	setne  al
    3ea9:	e9 1f ff ff ff       	jmp    3dcd <error_at_line@@Base+0x17b2>
    3eae:	66 90                	xchg   ax,ax
    3eb0:	0f b6 74 24 17       	movzx  esi,BYTE PTR [rsp+0x17]
    3eb5:	40 84 f6             	test   sil,sil
    3eb8:	0f 84 22 02 00 00    	je     40e0 <error_at_line@@Base+0x1ac5>
    3ebe:	48 83 7c 24 20 00    	cmp    QWORD PTR [rsp+0x20],0x0
    3ec4:	74 0a                	je     3ed0 <error_at_line@@Base+0x18b5>
    3ec6:	45 31 db             	xor    r11d,r11d
    3ec9:	89 ea                	mov    edx,ebp
    3ecb:	e9 d0 f4 ff ff       	jmp    33a0 <error_at_line@@Base+0xd85>
    3ed0:	0f b6 74 24 17       	movzx  esi,BYTE PTR [rsp+0x17]
    3ed5:	89 ea                	mov    edx,ebp
    3ed7:	40 20 74 24 30       	and    BYTE PTR [rsp+0x30],sil
    3edc:	49 83 c4 01          	add    r12,0x1
    3ee0:	44 89 d0             	mov    eax,r10d
    3ee3:	89 d5                	mov    ebp,edx
    3ee5:	e9 07 f4 ff ff       	jmp    32f1 <error_at_line@@Base+0xcd6>
    3eea:	66 0f 1f 44 00 00    	nop    WORD PTR [rax+rax*1+0x0]
    3ef0:	80 7c 24 17 00       	cmp    BYTE PTR [rsp+0x17],0x0
    3ef5:	75 69                	jne    3f60 <error_at_line@@Base+0x1945>
    3ef7:	c6 44 24 6e 00       	mov    BYTE PTR [rsp+0x6e],0x0
    3efc:	4d 85 f6             	test   r14,r14
    3eff:	0f 95 c0             	setne  al
    3f02:	48 83 7c 24 58 00    	cmp    QWORD PTR [rsp+0x58],0x0
    3f08:	0f 94 c2             	sete   dl
    3f0b:	20 d0                	and    al,dl
    3f0d:	0f 85 6e 02 00 00    	jne    4181 <error_at_line@@Base+0x1b66>
    3f13:	4c 39 f3             	cmp    rbx,r14
    3f16:	73 05                	jae    3f1d <error_at_line@@Base+0x1902>
    3f18:	41 c6 04 18 27       	mov    BYTE PTR [r8+rbx*1],0x27
    3f1d:	48 8d 43 01          	lea    rax,[rbx+0x1]
    3f21:	4c 39 f0             	cmp    rax,r14
    3f24:	73 06                	jae    3f2c <error_at_line@@Base+0x1911>
    3f26:	41 c6 44 18 01 5c    	mov    BYTE PTR [r8+rbx*1+0x1],0x5c
    3f2c:	48 8d 43 02          	lea    rax,[rbx+0x2]
    3f30:	4c 39 f0             	cmp    rax,r14
    3f33:	73 06                	jae    3f3b <error_at_line@@Base+0x1920>
    3f35:	41 c6 44 18 02 27    	mov    BYTE PTR [r8+rbx*1+0x2],0x27
    3f3b:	48 83 c3 03          	add    rbx,0x3
    3f3f:	49 83 c4 01          	add    r12,0x1
    3f43:	80 7c 24 6e 00       	cmp    BYTE PTR [rsp+0x6e],0x0
    3f48:	bd 27 00 00 00       	mov    ebp,0x27
    3f4d:	0f 85 1a f2 ff ff    	jne    316d <error_at_line@@Base+0xb52>
    3f53:	44 88 7c 24 6e       	mov    BYTE PTR [rsp+0x6e],r15b
    3f58:	45 31 d2             	xor    r10d,r10d
    3f5b:	e9 4a f2 ff ff       	jmp    31aa <error_at_line@@Base+0xb8f>
    3f60:	4d 89 c7             	mov    r15,r8
    3f63:	4d 89 eb             	mov    r11,r13
    3f66:	e9 d5 f3 ff ff       	jmp    3340 <error_at_line@@Base+0xd25>
    3f6b:	0f 1f 44 00 00       	nop    DWORD PTR [rax+rax*1+0x0]
    3f70:	40 80 fd 7a          	cmp    bpl,0x7a
    3f74:	0f 8f a3 02 00 00    	jg     421d <error_at_line@@Base+0x1c02>
    3f7a:	40 80 fd 40          	cmp    bpl,0x40
    3f7e:	0f 84 94 f9 ff ff    	je     3918 <error_at_line@@Base+0x12fd>
    3f84:	8d 4d bf             	lea    ecx,[rbp-0x41]
    3f87:	b8 01 00 00 00       	mov    eax,0x1
    3f8c:	48 ba ff ff ff 53 ff 	movabs rdx,0x3ffffff53ffffff
    3f93:	ff ff 03 
    3f96:	48 d3 e0             	shl    rax,cl
    3f99:	48 85 d0             	test   rax,rdx
    3f9c:	0f 85 4e f9 ff ff    	jne    38f0 <error_at_line@@Base+0x12d5>
    3fa2:	a9 00 00 00 a4       	test   eax,0xa4000000
    3fa7:	0f 85 9b fa ff ff    	jne    3a48 <error_at_line@@Base+0x142d>
    3fad:	83 7c 24 34 02       	cmp    DWORD PTR [rsp+0x34],0x2
    3fb2:	0f 84 a3 fe ff ff    	je     3e5b <error_at_line@@Base+0x1840>
    3fb8:	80 7c 24 32 00       	cmp    BYTE PTR [rsp+0x32],0x0
    3fbd:	0f 85 86 02 00 00    	jne    4249 <error_at_line@@Base+0x1c2e>
    3fc3:	44 0f b6 5c 24 18    	movzx  r11d,BYTE PTR [rsp+0x18]
    3fc9:	31 f6                	xor    esi,esi
    3fcb:	31 c0                	xor    eax,eax
    3fcd:	89 ea                	mov    edx,ebp
    3fcf:	e9 1e f4 ff ff       	jmp    33f2 <error_at_line@@Base+0xdd7>
    3fd4:	0f 1f 40 00          	nop    DWORD PTR [rax+0x0]
    3fd8:	0f b6 44 24 32       	movzx  eax,BYTE PTR [rsp+0x32]
    3fdd:	45 31 ff             	xor    r15d,r15d
    3fe0:	49 8d 54 24 01       	lea    rdx,[r12+0x1]
    3fe5:	4c 01 e1             	add    rcx,r12
    3fe8:	49 89 d4             	mov    r12,rdx
    3feb:	84 c0                	test   al,al
    3fed:	0f 84 b2 04 00 00    	je     44a5 <error_at_line@@Base+0x1e8a>
    3ff3:	80 7c 24 17 00       	cmp    BYTE PTR [rsp+0x17],0x0
    3ff8:	74 21                	je     401b <error_at_line@@Base+0x1a00>
    3ffa:	e9 ec 01 00 00       	jmp    41eb <error_at_line@@Base+0x1bd0>
    3fff:	90                   	nop
    4000:	4c 39 f0             	cmp    rax,r14
    4003:	73 04                	jae    4009 <error_at_line@@Base+0x19ee>
    4005:	41 88 2c 00          	mov    BYTE PTR [r8+rax*1],bpl
    4009:	48 8b 44 24 08       	mov    rax,QWORD PTR [rsp+0x8]
    400e:	48 83 c3 04          	add    rbx,0x4
    4012:	42 0f b6 2c 20       	movzx  ebp,BYTE PTR [rax+r12*1]
    4017:	49 83 c4 01          	add    r12,0x1
    401b:	44 89 d0             	mov    eax,r10d
    401e:	83 f0 01             	xor    eax,0x1
    4021:	22 44 24 31          	and    al,BYTE PTR [rsp+0x31]
    4025:	74 2f                	je     4056 <error_at_line@@Base+0x1a3b>
    4027:	4c 39 f3             	cmp    rbx,r14
    402a:	73 05                	jae    4031 <error_at_line@@Base+0x1a16>
    402c:	41 c6 04 18 27       	mov    BYTE PTR [r8+rbx*1],0x27
    4031:	48 8d 53 01          	lea    rdx,[rbx+0x1]
    4035:	4c 39 f2             	cmp    rdx,r14
    4038:	73 06                	jae    4040 <error_at_line@@Base+0x1a25>
    403a:	41 c6 44 18 01 24    	mov    BYTE PTR [r8+rbx*1+0x1],0x24
    4040:	48 8d 53 02          	lea    rdx,[rbx+0x2]
    4044:	4c 39 f2             	cmp    rdx,r14
    4047:	73 06                	jae    404f <error_at_line@@Base+0x1a34>
    4049:	41 c6 44 18 02 27    	mov    BYTE PTR [r8+rbx*1+0x2],0x27
    404f:	48 83 c3 03          	add    rbx,0x3
    4053:	41 89 c2             	mov    r10d,eax
    4056:	4c 39 f3             	cmp    rbx,r14
    4059:	73 05                	jae    4060 <error_at_line@@Base+0x1a45>
    405b:	41 c6 04 18 5c       	mov    BYTE PTR [r8+rbx*1],0x5c
    4060:	48 8d 43 01          	lea    rax,[rbx+0x1]
    4064:	4c 39 f0             	cmp    rax,r14
    4067:	73 0d                	jae    4076 <error_at_line@@Base+0x1a5b>
    4069:	89 e8                	mov    eax,ebp
    406b:	c0 e8 06             	shr    al,0x6
    406e:	83 c0 30             	add    eax,0x30
    4071:	41 88 44 18 01       	mov    BYTE PTR [r8+rbx*1+0x1],al
    4076:	48 8d 43 02          	lea    rax,[rbx+0x2]
    407a:	4c 39 f0             	cmp    rax,r14
    407d:	73 10                	jae    408f <error_at_line@@Base+0x1a74>
    407f:	89 e8                	mov    eax,ebp
    4081:	c0 e8 03             	shr    al,0x3
    4084:	83 e0 07             	and    eax,0x7
    4087:	83 c0 30             	add    eax,0x30
    408a:	41 88 44 18 02       	mov    BYTE PTR [r8+rbx*1+0x2],al
    408f:	83 e5 07             	and    ebp,0x7
    4092:	48 8d 43 03          	lea    rax,[rbx+0x3]
    4096:	83 c5 30             	add    ebp,0x30
    4099:	49 39 cc             	cmp    r12,rcx
    409c:	0f 82 5e ff ff ff    	jb     4000 <error_at_line@@Base+0x19e5>
    40a2:	c6 44 24 30 00       	mov    BYTE PTR [rsp+0x30],0x0
    40a7:	48 89 c3             	mov    rbx,rax
    40aa:	e9 fb f0 ff ff       	jmp    31aa <error_at_line@@Base+0xb8f>
    40af:	90                   	nop
    40b0:	c6 44 24 30 00       	mov    BYTE PTR [rsp+0x30],0x0
    40b5:	bd 5c 00 00 00       	mov    ebp,0x5c
    40ba:	e9 3a f2 ff ff       	jmp    32f9 <error_at_line@@Base+0xcde>
    40bf:	45 31 db             	xor    r11d,r11d
    40c2:	31 f6                	xor    esi,esi
    40c4:	89 ea                	mov    edx,ebp
    40c6:	e9 1d f3 ff ff       	jmp    33e8 <error_at_line@@Base+0xdcd>
    40cb:	0f 1f 44 00 00       	nop    DWORD PTR [rax+rax*1+0x0]
    40d0:	0f b6 74 24 18       	movzx  esi,BYTE PTR [rsp+0x18]
    40d5:	31 c0                	xor    eax,eax
    40d7:	e9 06 f2 ff ff       	jmp    32e2 <error_at_line@@Base+0xcc7>
    40dc:	0f 1f 40 00          	nop    DWORD PTR [rax+0x0]
    40e0:	0f b6 74 24 33       	movzx  esi,BYTE PTR [rsp+0x33]
    40e5:	45 31 db             	xor    r11d,r11d
    40e8:	31 c0                	xor    eax,eax
    40ea:	89 ea                	mov    edx,ebp
    40ec:	e9 01 f3 ff ff       	jmp    33f2 <error_at_line@@Base+0xdd7>
    40f1:	0f 1f 80 00 00 00 00 	nop    DWORD PTR [rax+0x0]
    40f8:	0f b6 44 24 17       	movzx  eax,BYTE PTR [rsp+0x17]
    40fd:	34 01                	xor    al,0x1
    40ff:	74 0b                	je     410c <error_at_line@@Base+0x1af1>
    4101:	80 7c 24 31 00       	cmp    BYTE PTR [rsp+0x31],0x0
    4106:	0f 85 fc f0 ff ff    	jne    3208 <error_at_line@@Base+0xbed>
    410c:	4d 89 fa             	mov    r10,r15
    410f:	49 89 db             	mov    r11,rbx
    4112:	4d 89 f7             	mov    r15,r14
    4115:	48 8b 54 24 50       	mov    rdx,QWORD PTR [rsp+0x50]
    411a:	48 85 d2             	test   rdx,rdx
    411d:	74 2c                	je     414b <error_at_line@@Base+0x1b30>
    411f:	84 c0                	test   al,al
    4121:	74 28                	je     414b <error_at_line@@Base+0x1b30>
    4123:	0f b6 0a             	movzx  ecx,BYTE PTR [rdx]
    4126:	48 89 d0             	mov    rax,rdx
    4129:	84 c9                	test   cl,cl
    412b:	74 1e                	je     414b <error_at_line@@Base+0x1b30>
    412d:	4c 89 da             	mov    rdx,r11
    4130:	4c 29 d8             	sub    rax,r11
    4133:	4c 39 fa             	cmp    rdx,r15
    4136:	73 04                	jae    413c <error_at_line@@Base+0x1b21>
    4138:	41 88 0c 12          	mov    BYTE PTR [r10+rdx*1],cl
    413c:	48 83 c2 01          	add    rdx,0x1
    4140:	0f b6 0c 10          	movzx  ecx,BYTE PTR [rax+rdx*1]
    4144:	84 c9                	test   cl,cl
    4146:	75 eb                	jne    4133 <error_at_line@@Base+0x1b18>
    4148:	49 89 d3             	mov    r11,rdx
    414b:	4d 39 fb             	cmp    r11,r15
    414e:	73 05                	jae    4155 <error_at_line@@Base+0x1b3a>
    4150:	43 c6 04 1a 00       	mov    BYTE PTR [r10+r11*1],0x0
    4155:	48 8b 84 24 a8 00 00 	mov    rax,QWORD PTR [rsp+0xa8]
    415c:	00 
    415d:	64 48 2b 04 25 28 00 	sub    rax,QWORD PTR fs:0x28
    4164:	00 00 
    4166:	0f 85 34 06 00 00    	jne    47a0 <error_at_line@@Base+0x2185>
    416c:	48 81 c4 b8 00 00 00 	add    rsp,0xb8
    4173:	4c 89 d8             	mov    rax,r11
    4176:	5b                   	pop    rbx
    4177:	5d                   	pop    rbp
    4178:	41 5c                	pop    r12
    417a:	41 5d                	pop    r13
    417c:	41 5e                	pop    r14
    417e:	41 5f                	pop    r15
    4180:	c3                   	ret
    4181:	49 83 c4 01          	add    r12,0x1
    4185:	80 7c 24 6e 00       	cmp    BYTE PTR [rsp+0x6e],0x0
    418a:	0f 84 b2 01 00 00    	je     4342 <error_at_line@@Base+0x1d27>
    4190:	4c 89 74 24 58       	mov    QWORD PTR [rsp+0x58],r14
    4195:	44 0f b6 54 24 6e    	movzx  r10d,BYTE PTR [rsp+0x6e]
    419b:	48 83 c3 06          	add    rbx,0x6
    419f:	45 31 f6             	xor    r14d,r14d
    41a2:	bd 27 00 00 00       	mov    ebp,0x27
    41a7:	e9 fa ef ff ff       	jmp    31a6 <error_at_line@@Base+0xb8b>
    41ac:	49 83 c4 01          	add    r12,0x1
    41b0:	49 83 fd ff          	cmp    r13,0xffffffffffffffff
    41b4:	0f 84 0e f0 ff ff    	je     31c8 <error_at_line@@Base+0xbad>
    41ba:	4d 39 ec             	cmp    r12,r13
    41bd:	0f 84 23 f0 ff ff    	je     31e6 <error_at_line@@Base+0xbcb>
    41c3:	48 8b 44 24 08       	mov    rax,QWORD PTR [rsp+0x8]
    41c8:	4e 8d 0c 20          	lea    r9,[rax+r12*1]
    41cc:	e9 fc ee ff ff       	jmp    30cd <error_at_line@@Base+0xab2>
    41d1:	31 c0                	xor    eax,eax
    41d3:	31 d2                	xor    edx,edx
    41d5:	c6 44 24 30 00       	mov    BYTE PTR [rsp+0x30],0x0
    41da:	49 83 c4 01          	add    r12,0x1
    41de:	83 f0 01             	xor    eax,0x1
    41e1:	89 d5                	mov    ebp,edx
    41e3:	44 21 d0             	and    eax,r10d
    41e6:	e9 06 f1 ff ff       	jmp    32f1 <error_at_line@@Base+0xcd6>
    41eb:	0f b6 44 24 31       	movzx  eax,BYTE PTR [rsp+0x31]
    41f0:	4d 89 c7             	mov    r15,r8
    41f3:	4d 89 eb             	mov    r11,r13
    41f6:	88 44 24 32          	mov    BYTE PTR [rsp+0x32],al
    41fa:	e9 41 f1 ff ff       	jmp    3340 <error_at_line@@Base+0xd25>
    41ff:	41 89 c2             	mov    r10d,eax
    4202:	31 f6                	xor    esi,esi
    4204:	ba 30 00 00 00       	mov    edx,0x30
    4209:	e9 e4 f1 ff ff       	jmp    33f2 <error_at_line@@Base+0xdd7>
    420e:	c6 44 24 30 00       	mov    BYTE PTR [rsp+0x30],0x0
    4213:	bd 5c 00 00 00       	mov    ebp,0x5c
    4218:	e9 92 ef ff ff       	jmp    31af <error_at_line@@Base+0xb94>
    421d:	44 0f b6 5c 24 18    	movzx  r11d,BYTE PTR [rsp+0x18]
    4223:	40 80 fd 7d          	cmp    bpl,0x7d
    4227:	0f 84 8f fb ff ff    	je     3dbc <error_at_line@@Base+0x17a1>
    422d:	0f 8f b3 01 00 00    	jg     43e6 <error_at_line@@Base+0x1dcb>
    4233:	40 80 fd 7b          	cmp    bpl,0x7b
    4237:	0f 84 7f fb ff ff    	je     3dbc <error_at_line@@Base+0x17a1>
    423d:	31 f6                	xor    esi,esi
    423f:	bd 7c 00 00 00       	mov    ebp,0x7c
    4244:	e9 dc f0 ff ff       	jmp    3325 <error_at_line@@Base+0xd0a>
    4249:	44 89 d0             	mov    eax,r10d
    424c:	c6 44 24 30 00       	mov    BYTE PTR [rsp+0x30],0x0
    4251:	49 83 c4 01          	add    r12,0x1
    4255:	bd 5c 00 00 00       	mov    ebp,0x5c
    425a:	83 f0 01             	xor    eax,0x1
    425d:	22 44 24 31          	and    al,BYTE PTR [rsp+0x31]
    4261:	e9 03 ef ff ff       	jmp    3169 <error_at_line@@Base+0xb4e>
    4266:	0f b6 44 24 6f       	movzx  eax,BYTE PTR [rsp+0x6f]
    426b:	48 89 cb             	mov    rbx,rcx
    426e:	bd 30 00 00 00       	mov    ebp,0x30
    4273:	e9 61 f0 ff ff       	jmp    32d9 <error_at_line@@Base+0xcbe>
    4278:	0f b6 74 24 17       	movzx  esi,BYTE PTR [rsp+0x17]
    427d:	40 84 f6             	test   sil,sil
    4280:	0f 84 5a fe ff ff    	je     40e0 <error_at_line@@Base+0x1ac5>
    4286:	48 83 7c 24 20 00    	cmp    QWORD PTR [rsp+0x20],0x0
    428c:	0f 84 3e fc ff ff    	je     3ed0 <error_at_line@@Base+0x18b5>
    4292:	89 ea                	mov    edx,ebp
    4294:	45 31 db             	xor    r11d,r11d
    4297:	e9 04 f1 ff ff       	jmp    33a0 <error_at_line@@Base+0xd85>
    429c:	45 84 db             	test   r11b,r11b
    429f:	0f 84 ec 02 00 00    	je     4591 <error_at_line@@Base+0x1f76>
    42a5:	c6 44 24 30 00       	mov    BYTE PTR [rsp+0x30],0x0
    42aa:	49 89 d4             	mov    r12,rdx
    42ad:	48 89 cb             	mov    rbx,rcx
    42b0:	bd 30 00 00 00       	mov    ebp,0x30
    42b5:	e9 e2 ee ff ff       	jmp    319c <error_at_line@@Base+0xb81>
    42ba:	0f b6 44 24 32       	movzx  eax,BYTE PTR [rsp+0x32]
    42bf:	31 f6                	xor    esi,esi
    42c1:	31 c9                	xor    ecx,ecx
    42c3:	e9 e1 ef ff ff       	jmp    32a9 <error_at_line@@Base+0xc8e>
    42c8:	48 8b 44 24 78       	mov    rax,QWORD PTR [rsp+0x78]
    42cd:	31 c9                	xor    ecx,ecx
    42cf:	4d 39 ec             	cmp    r12,r13
    42d2:	72 15                	jb     42e9 <error_at_line@@Base+0x1cce>
    42d4:	e9 b4 04 00 00       	jmp    478d <error_at_line@@Base+0x2172>
    42d9:	0f 1f 80 00 00 00 00 	nop    DWORD PTR [rax+0x0]
    42e0:	48 83 c1 01          	add    rcx,0x1
    42e4:	48 39 c8             	cmp    rax,rcx
    42e7:	74 07                	je     42f0 <error_at_line@@Base+0x1cd5>
    42e9:	41 80 3c 09 00       	cmp    BYTE PTR [r9+rcx*1],0x0
    42ee:	75 f0                	jne    42e0 <error_at_line@@Base+0x1cc5>
    42f0:	0f b6 44 24 32       	movzx  eax,BYTE PTR [rsp+0x32]
    42f5:	48 83 f9 01          	cmp    rcx,0x1
    42f9:	0f 87 fb 02 00 00    	ja     45fa <error_at_line@@Base+0x1fdf>
    42ff:	31 f6                	xor    esi,esi
    4301:	e9 a3 ef ff ff       	jmp    32a9 <error_at_line@@Base+0xc8e>
    4306:	45 31 db             	xor    r11d,r11d
    4309:	e9 b8 fa ff ff       	jmp    3dc6 <error_at_line@@Base+0x17ab>
    430e:	80 7c 24 17 00       	cmp    BYTE PTR [rsp+0x17],0x0
    4313:	0f 85 47 fc ff ff    	jne    3f60 <error_at_line@@Base+0x1945>
    4319:	31 c0                	xor    eax,eax
    431b:	ba 3f 00 00 00       	mov    edx,0x3f
    4320:	c6 44 24 30 00       	mov    BYTE PTR [rsp+0x30],0x0
    4325:	49 83 c4 01          	add    r12,0x1
    4329:	83 f0 01             	xor    eax,0x1
    432c:	89 d5                	mov    ebp,edx
    432e:	44 21 d0             	and    eax,r10d
    4331:	e9 bb ef ff ff       	jmp    32f1 <error_at_line@@Base+0xcd6>
    4336:	31 f6                	xor    esi,esi
    4338:	bd 61 00 00 00       	mov    ebp,0x61
    433d:	e9 05 ee ff ff       	jmp    3147 <error_at_line@@Base+0xb2c>
    4342:	4c 89 74 24 58       	mov    QWORD PTR [rsp+0x58],r14
    4347:	48 83 c3 03          	add    rbx,0x3
    434b:	45 31 d2             	xor    r10d,r10d
    434e:	45 31 f6             	xor    r14d,r14d
    4351:	88 44 24 6e          	mov    BYTE PTR [rsp+0x6e],al
    4355:	e9 59 ee ff ff       	jmp    31b3 <error_at_line@@Base+0xb98>
    435a:	31 c0                	xor    eax,eax
    435c:	ba 07 00 00 00       	mov    edx,0x7
    4361:	c6 44 24 30 00       	mov    BYTE PTR [rsp+0x30],0x0
    4366:	49 83 c4 01          	add    r12,0x1
    436a:	83 f0 01             	xor    eax,0x1
    436d:	89 d5                	mov    ebp,edx
    436f:	44 21 d0             	and    eax,r10d
    4372:	e9 7a ef ff ff       	jmp    32f1 <error_at_line@@Base+0xcd6>
    4377:	31 d2                	xor    edx,edx
    4379:	31 f6                	xor    esi,esi
    437b:	49 83 c4 01          	add    r12,0x1
    437f:	40 20 74 24 30       	and    BYTE PTR [rsp+0x30],sil
    4384:	44 89 d0             	mov    eax,r10d
    4387:	89 d5                	mov    ebp,edx
    4389:	e9 63 ef ff ff       	jmp    32f1 <error_at_line@@Base+0xcd6>
    438e:	c6 44 24 30 00       	mov    BYTE PTR [rsp+0x30],0x0
    4393:	41 89 c2             	mov    r10d,eax
    4396:	bd 30 00 00 00       	mov    ebp,0x30
    439b:	e9 0a ee ff ff       	jmp    31aa <error_at_line@@Base+0xb8f>
    43a0:	4c 39 f1             	cmp    rcx,r14
    43a3:	73 05                	jae    43aa <error_at_line@@Base+0x1d8f>
    43a5:	41 c6 04 08 30       	mov    BYTE PTR [r8+rcx*1],0x30
    43aa:	48 8d 43 02          	lea    rax,[rbx+0x2]
    43ae:	4c 39 f0             	cmp    rax,r14
    43b1:	73 06                	jae    43b9 <error_at_line@@Base+0x1d9e>
    43b3:	41 c6 44 18 02 30    	mov    BYTE PTR [r8+rbx*1+0x2],0x30
    43b9:	48 8b 44 24 20       	mov    rax,QWORD PTR [rsp+0x20]
    43be:	48 83 c3 03          	add    rbx,0x3
    43c2:	48 85 c0             	test   rax,rax
    43c5:	0f 84 94 02 00 00    	je     465f <error_at_line@@Base+0x2044>
    43cb:	31 f6                	xor    esi,esi
    43cd:	f6 40 06 01          	test   BYTE PTR [rax+0x6],0x1
    43d1:	0f 85 99 f9 ff ff    	jne    3d70 <error_at_line@@Base+0x1755>
    43d7:	0f b6 44 24 6f       	movzx  eax,BYTE PTR [rsp+0x6f]
    43dc:	bd 30 00 00 00       	mov    ebp,0x30
    43e1:	e9 f3 ee ff ff       	jmp    32d9 <error_at_line@@Base+0xcbe>
    43e6:	40 80 fd 7e          	cmp    bpl,0x7e
    43ea:	0f 84 10 f2 ff ff    	je     3600 <error_at_line@@Base+0xfe5>
    43f0:	bd 7f 00 00 00       	mov    ebp,0x7f
    43f5:	e9 59 ee ff ff       	jmp    3253 <error_at_line@@Base+0xc38>
    43fa:	48 83 f8 01          	cmp    rax,0x1
    43fe:	0f 84 3f 03 00 00    	je     4743 <error_at_line@@Base+0x2128>
    4404:	48 8b 44 24 08       	mov    rax,QWORD PTR [rsp+0x8]
    4409:	49 8d 54 24 01       	lea    rdx,[r12+0x1]
    440e:	49 01 c9             	add    r9,rcx
    4411:	48 bf 2b 00 00 00 02 	movabs rdi,0x20000002b
    4418:	00 00 00 
    441b:	48 8d 34 10          	lea    rsi,[rax+rdx*1]
    441f:	eb 09                	jmp    442a <error_at_line@@Base+0x1e0f>
    4421:	48 83 c6 01          	add    rsi,0x1
    4425:	49 39 f1             	cmp    r9,rsi
    4428:	74 1d                	je     4447 <error_at_line@@Base+0x1e2c>
    442a:	0f b6 06             	movzx  eax,BYTE PTR [rsi]
    442d:	83 e8 5b             	sub    eax,0x5b
    4430:	3c 21                	cmp    al,0x21
    4432:	77 ed                	ja     4421 <error_at_line@@Base+0x1e06>
    4434:	48 0f a3 c7          	bt     rdi,rax
    4438:	0f 82 ee ee ff ff    	jb     332c <error_at_line@@Base+0xd11>
    443e:	48 83 c6 01          	add    rsi,0x1
    4442:	49 39 f1             	cmp    r9,rsi
    4445:	75 e3                	jne    442a <error_at_line@@Base+0x1e0f>
    4447:	8b bc 24 9c 00 00 00 	mov    edi,DWORD PTR [rsp+0x9c]
    444e:	4c 89 44 24 78       	mov    QWORD PTR [rsp+0x78],r8
    4453:	44 88 54 24 70       	mov    BYTE PTR [rsp+0x70],r10b
    4458:	48 89 54 24 48       	mov    QWORD PTR [rsp+0x48],rdx
    445d:	48 89 4c 24 40       	mov    QWORD PTR [rsp+0x40],rcx
    4462:	44 88 5c 24 38       	mov    BYTE PTR [rsp+0x38],r11b
    4467:	e8 64 de ff ff       	call   22d0 <iswprint@plt>
    446c:	44 0f b6 5c 24 38    	movzx  r11d,BYTE PTR [rsp+0x38]
    4472:	48 8b 4c 24 40       	mov    rcx,QWORD PTR [rsp+0x40]
    4477:	85 c0                	test   eax,eax
    4479:	48 8b 54 24 48       	mov    rdx,QWORD PTR [rsp+0x48]
    447e:	44 0f b6 54 24 70    	movzx  r10d,BYTE PTR [rsp+0x70]
    4484:	4c 8b 44 24 78       	mov    r8,QWORD PTR [rsp+0x78]
    4489:	0f 85 c9 01 00 00    	jne    4658 <error_at_line@@Base+0x203d>
    448f:	0f b6 44 24 32       	movzx  eax,BYTE PTR [rsp+0x32]
    4494:	4c 01 e1             	add    rcx,r12
    4497:	45 31 ff             	xor    r15d,r15d
    449a:	49 89 d4             	mov    r12,rdx
    449d:	84 c0                	test   al,al
    449f:	0f 85 4e fb ff ff    	jne    3ff3 <error_at_line@@Base+0x19d8>
    44a5:	44 89 d0             	mov    eax,r10d
    44a8:	45 84 db             	test   r11b,r11b
    44ab:	74 0e                	je     44bb <error_at_line@@Base+0x1ea0>
    44ad:	4c 39 f3             	cmp    rbx,r14
    44b0:	73 05                	jae    44b7 <error_at_line@@Base+0x1e9c>
    44b2:	41 c6 04 18 5c       	mov    BYTE PTR [r8+rbx*1],0x5c
    44b7:	48 83 c3 01          	add    rbx,0x1
    44bb:	49 39 cc             	cmp    r12,rcx
    44be:	73 5f                	jae    451f <error_at_line@@Base+0x1f04>
    44c0:	84 c0                	test   al,al
    44c2:	74 3b                	je     44ff <error_at_line@@Base+0x1ee4>
    44c4:	4c 39 f3             	cmp    rbx,r14
    44c7:	73 05                	jae    44ce <error_at_line@@Base+0x1eb3>
    44c9:	41 c6 04 18 27       	mov    BYTE PTR [r8+rbx*1],0x27
    44ce:	48 8d 43 01          	lea    rax,[rbx+0x1]
    44d2:	4c 39 f0             	cmp    rax,r14
    44d5:	73 06                	jae    44dd <error_at_line@@Base+0x1ec2>
    44d7:	41 c6 44 18 01 27    	mov    BYTE PTR [r8+rbx*1+0x1],0x27
    44dd:	48 8d 43 02          	lea    rax,[rbx+0x2]
    44e1:	4c 39 f0             	cmp    rax,r14
    44e4:	72 4a                	jb     4530 <error_at_line@@Base+0x1f15>
    44e6:	48 8b 44 24 08       	mov    rax,QWORD PTR [rsp+0x8]
    44eb:	48 83 c3 03          	add    rbx,0x3
    44ef:	42 0f b6 2c 20       	movzx  ebp,BYTE PTR [rax+r12*1]
    44f4:	49 83 c4 01          	add    r12,0x1
    44f8:	49 39 cc             	cmp    r12,rcx
    44fb:	73 51                	jae    454e <error_at_line@@Base+0x1f33>
    44fd:	31 c0                	xor    eax,eax
    44ff:	4c 39 f3             	cmp    rbx,r14
    4502:	73 04                	jae    4508 <error_at_line@@Base+0x1eed>
    4504:	41 88 2c 18          	mov    BYTE PTR [r8+rbx*1],bpl
    4508:	48 8b 54 24 08       	mov    rdx,QWORD PTR [rsp+0x8]
    450d:	48 83 c3 01          	add    rbx,0x1
    4511:	42 0f b6 2c 22       	movzx  ebp,BYTE PTR [rdx+r12*1]
    4516:	49 83 c4 01          	add    r12,0x1
    451a:	49 39 cc             	cmp    r12,rcx
    451d:	72 a1                	jb     44c0 <error_at_line@@Base+0x1ea5>
    451f:	41 89 c2             	mov    r10d,eax
    4522:	44 20 7c 24 30       	and    BYTE PTR [rsp+0x30],r15b
    4527:	e9 c5 ed ff ff       	jmp    32f1 <error_at_line@@Base+0xcd6>
    452c:	0f 1f 40 00          	nop    DWORD PTR [rax+0x0]
    4530:	48 8b 44 24 08       	mov    rax,QWORD PTR [rsp+0x8]
    4535:	41 88 6c 18 02       	mov    BYTE PTR [r8+rbx*1+0x2],bpl
    453a:	48 83 c3 03          	add    rbx,0x3
    453e:	42 0f b6 2c 20       	movzx  ebp,BYTE PTR [rax+r12*1]
    4543:	49 83 c4 01          	add    r12,0x1
    4547:	31 c0                	xor    eax,eax
    4549:	e9 6d ff ff ff       	jmp    44bb <error_at_line@@Base+0x1ea0>
    454e:	45 31 d2             	xor    r10d,r10d
    4551:	31 c0                	xor    eax,eax
    4553:	eb cd                	jmp    4522 <error_at_line@@Base+0x1f07>
    4555:	0f b6 44 24 17       	movzx  eax,BYTE PTR [rsp+0x17]
    455a:	c6 44 24 18 00       	mov    BYTE PTR [rsp+0x18],0x0
    455f:	31 db                	xor    ebx,ebx
    4561:	c6 44 24 6d 00       	mov    BYTE PTR [rsp+0x6d],0x0
    4566:	88 44 24 33          	mov    BYTE PTR [rsp+0x33],al
    456a:	88 44 24 6c          	mov    BYTE PTR [rsp+0x6c],al
    456e:	88 44 24 31          	mov    BYTE PTR [rsp+0x31],al
    4572:	48 8d 05 bf 2b 00 00 	lea    rax,[rip+0x2bbf]        # 7138 <error_at_line@@Base+0x4b1d>
    4579:	c6 44 24 6f 00       	mov    BYTE PTR [rsp+0x6f],0x0
    457e:	48 c7 44 24 28 01 00 	mov    QWORD PTR [rsp+0x28],0x1
    4585:	00 00 
    4587:	48 89 44 24 50       	mov    QWORD PTR [rsp+0x50],rax
    458c:	e9 ff ea ff ff       	jmp    3090 <error_at_line@@Base+0xa75>
    4591:	c6 44 24 30 00       	mov    BYTE PTR [rsp+0x30],0x0
    4596:	49 89 d4             	mov    r12,rdx
    4599:	48 89 cb             	mov    rbx,rcx
    459c:	bd 30 00 00 00       	mov    ebp,0x30
    45a1:	e9 04 ec ff ff       	jmp    31aa <error_at_line@@Base+0xb8f>
    45a6:	49 83 c4 01          	add    r12,0x1
    45aa:	89 ea                	mov    edx,ebp
    45ac:	e9 53 ee ff ff       	jmp    3404 <error_at_line@@Base+0xde9>
    45b1:	48 8b 94 24 88 00 00 	mov    rdx,QWORD PTR [rsp+0x88]
    45b8:	00 
    45b9:	0f b6 02             	movzx  eax,BYTE PTR [rdx]
    45bc:	84 c0                	test   al,al
    45be:	0f 84 87 ea ff ff    	je     304b <error_at_line@@Base+0xa30>
    45c4:	66 66 2e 0f 1f 84 00 	data16 cs nop WORD PTR [rax+rax*1+0x0]
    45cb:	00 00 00 00 
    45cf:	66 66 2e 0f 1f 84 00 	data16 cs nop WORD PTR [rax+rax*1+0x0]
    45d6:	00 00 00 00 
    45da:	66 0f 1f 44 00 00    	nop    WORD PTR [rax+rax*1+0x0]
    45e0:	4c 39 f3             	cmp    rbx,r14
    45e3:	73 04                	jae    45e9 <error_at_line@@Base+0x1fce>
    45e5:	41 88 04 1f          	mov    BYTE PTR [r15+rbx*1],al
    45e9:	48 83 c3 01          	add    rbx,0x1
    45ed:	0f b6 04 1a          	movzx  eax,BYTE PTR [rdx+rbx*1]
    45f1:	84 c0                	test   al,al
    45f3:	75 eb                	jne    45e0 <error_at_line@@Base+0x1fc5>
    45f5:	e9 51 ea ff ff       	jmp    304b <error_at_line@@Base+0xa30>
    45fa:	45 31 ff             	xor    r15d,r15d
    45fd:	49 8d 54 24 01       	lea    rdx,[r12+0x1]
    4602:	e9 de f9 ff ff       	jmp    3fe5 <error_at_line@@Base+0x19ca>
    4607:	ba 07 00 00 00       	mov    edx,0x7
    460c:	31 f6                	xor    esi,esi
    460e:	49 83 c4 01          	add    r12,0x1
    4612:	40 20 74 24 30       	and    BYTE PTR [rsp+0x30],sil
    4617:	44 89 d0             	mov    eax,r10d
    461a:	89 d5                	mov    ebp,edx
    461c:	e9 d0 ec ff ff       	jmp    32f1 <error_at_line@@Base+0xcd6>
    4621:	8b 74 24 34          	mov    esi,DWORD PTR [rsp+0x34]
    4625:	48 89 c7             	mov    rdi,rax
    4628:	e8 f3 e7 ff ff       	call   2e20 <error_at_line@@Base+0x805>
    462d:	48 89 84 24 80 00 00 	mov    QWORD PTR [rsp+0x80],rax
    4634:	00 
    4635:	e9 04 ea ff ff       	jmp    303e <error_at_line@@Base+0xa23>
    463a:	8b 74 24 34          	mov    esi,DWORD PTR [rsp+0x34]
    463e:	48 89 c7             	mov    rdi,rax
    4641:	e8 da e7 ff ff       	call   2e20 <error_at_line@@Base+0x805>
    4646:	48 89 84 24 88 00 00 	mov    QWORD PTR [rsp+0x88],rax
    464d:	00 
    464e:	e9 c3 e9 ff ff       	jmp    3016 <error_at_line@@Base+0x9fb>
    4653:	49 8d 54 24 01       	lea    rdx,[r12+0x1]
    4658:	31 c0                	xor    eax,eax
    465a:	e9 86 f9 ff ff       	jmp    3fe5 <error_at_line@@Base+0x19ca>
    465f:	48 89 d9             	mov    rcx,rbx
    4662:	45 84 db             	test   r11b,r11b
    4665:	0f 85 3a fc ff ff    	jne    42a5 <error_at_line@@Base+0x1c8a>
    466b:	c6 44 24 30 00       	mov    BYTE PTR [rsp+0x30],0x0
    4670:	49 89 d4             	mov    r12,rdx
    4673:	bd 30 00 00 00       	mov    ebp,0x30
    4678:	e9 2d eb ff ff       	jmp    31aa <error_at_line@@Base+0xb8f>
    467d:	31 f6                	xor    esi,esi
    467f:	48 83 7c 24 20 00    	cmp    QWORD PTR [rsp+0x20],0x0
    4685:	89 d5                	mov    ebp,edx
    4687:	49 89 cc             	mov    r12,rcx
    468a:	0f 85 95 ea ff ff    	jne    3125 <error_at_line@@Base+0xb0a>
    4690:	45 84 db             	test   r11b,r11b
    4693:	0f 84 00 01 00 00    	je     4799 <error_at_line@@Base+0x217e>
    4699:	48 8d 51 01          	lea    rdx,[rcx+0x1]
    469d:	e9 b5 ea ff ff       	jmp    3157 <error_at_line@@Base+0xb3c>
    46a2:	88 44 24 6e          	mov    BYTE PTR [rsp+0x6e],al
    46a6:	e9 51 f8 ff ff       	jmp    3efc <error_at_line@@Base+0x18e1>
    46ab:	c6 44 24 30 00       	mov    BYTE PTR [rsp+0x30],0x0
    46b0:	49 89 d4             	mov    r12,rdx
    46b3:	48 89 cb             	mov    rbx,rcx
    46b6:	bd 30 00 00 00       	mov    ebp,0x30
    46bb:	45 84 db             	test   r11b,r11b
    46be:	0f 85 d8 ea ff ff    	jne    319c <error_at_line@@Base+0xb81>
    46c4:	e9 e1 ea ff ff       	jmp    31aa <error_at_line@@Base+0xb8f>
    46c9:	4d 89 fa             	mov    r10,r15
    46cc:	49 89 db             	mov    r11,rbx
    46cf:	4d 89 f7             	mov    r15,r14
    46d2:	b8 01 00 00 00       	mov    eax,0x1
    46d7:	e9 39 fa ff ff       	jmp    4115 <error_at_line@@Base+0x1afa>
    46dc:	4d 89 fa             	mov    r10,r15
    46df:	0f b6 44 24 6e       	movzx  eax,BYTE PTR [rsp+0x6e]
    46e4:	49 89 db             	mov    r11,rbx
    46e7:	4d 89 f7             	mov    r15,r14
    46ea:	e9 26 fa ff ff       	jmp    4115 <error_at_line@@Base+0x1afa>
    46ef:	c7 44 24 34 05 00 00 	mov    DWORD PTR [rsp+0x34],0x5
    46f6:	00 
    46f7:	4c 8b 74 24 58       	mov    r14,QWORD PTR [rsp+0x58]
    46fc:	4d 89 eb             	mov    r11,r13
    46ff:	e9 6c e8 ff ff       	jmp    2f70 <error_at_line@@Base+0x955>
    4704:	31 f6                	xor    esi,esi
    4706:	bd 76 00 00 00       	mov    ebp,0x76
    470b:	49 8d 54 24 01       	lea    rdx,[r12+0x1]
    4710:	e9 42 ea ff ff       	jmp    3157 <error_at_line@@Base+0xb3c>
    4715:	31 f6                	xor    esi,esi
    4717:	bd 62 00 00 00       	mov    ebp,0x62
    471c:	49 8d 54 24 01       	lea    rdx,[r12+0x1]
    4721:	e9 31 ea ff ff       	jmp    3157 <error_at_line@@Base+0xb3c>
    4726:	31 f6                	xor    esi,esi
    4728:	bd 61 00 00 00       	mov    ebp,0x61
    472d:	e9 20 ea ff ff       	jmp    3152 <error_at_line@@Base+0xb37>
    4732:	31 f6                	xor    esi,esi
    4734:	bd 66 00 00 00       	mov    ebp,0x66
    4739:	49 8d 54 24 01       	lea    rdx,[r12+0x1]
    473e:	e9 14 ea ff ff       	jmp    3157 <error_at_line@@Base+0xb3c>
    4743:	8b bc 24 9c 00 00 00 	mov    edi,DWORD PTR [rsp+0x9c]
    474a:	4c 89 44 24 70       	mov    QWORD PTR [rsp+0x70],r8
    474f:	44 88 54 24 48       	mov    BYTE PTR [rsp+0x48],r10b
    4754:	44 88 5c 24 38       	mov    BYTE PTR [rsp+0x38],r11b
    4759:	48 89 44 24 40       	mov    QWORD PTR [rsp+0x40],rax
    475e:	e8 6d db ff ff       	call   22d0 <iswprint@plt>
    4763:	44 0f b6 5c 24 38    	movzx  r11d,BYTE PTR [rsp+0x38]
    4769:	44 0f b6 54 24 48    	movzx  r10d,BYTE PTR [rsp+0x48]
    476f:	85 c0                	test   eax,eax
    4771:	4c 8b 44 24 70       	mov    r8,QWORD PTR [rsp+0x70]
    4776:	0f 85 c4 f2 ff ff    	jne    3a40 <error_at_line@@Base+0x1425>
    477c:	0f b6 44 24 32       	movzx  eax,BYTE PTR [rsp+0x32]
    4781:	48 8b 4c 24 40       	mov    rcx,QWORD PTR [rsp+0x40]
    4786:	31 f6                	xor    esi,esi
    4788:	e9 1c eb ff ff       	jmp    32a9 <error_at_line@@Base+0xc8e>
    478d:	0f b6 44 24 32       	movzx  eax,BYTE PTR [rsp+0x32]
    4792:	31 f6                	xor    esi,esi
    4794:	e9 10 eb ff ff       	jmp    32a9 <error_at_line@@Base+0xc8e>
    4799:	31 c0                	xor    eax,eax
    479b:	e9 42 eb ff ff       	jmp    32e2 <error_at_line@@Base+0xcc7>
    47a0:	e8 6b d9 ff ff       	call   2110 <__stack_chk_fail@plt>
    47a5:	66 66 2e 0f 1f 84 00 	data16 cs nop WORD PTR [rax+rax*1+0x0]
    47ac:	00 00 00 00 
    47b0:	41 57                	push   r15
    47b2:	41 56                	push   r14
    47b4:	41 55                	push   r13
    47b6:	41 54                	push   r12
    47b8:	55                   	push   rbp
    47b9:	53                   	push   rbx
    47ba:	48 63 df             	movsxd rbx,edi
    47bd:	48 83 ec 38          	sub    rsp,0x38
    47c1:	48 89 34 24          	mov    QWORD PTR [rsp],rsi
    47c5:	48 89 54 24 08       	mov    QWORD PTR [rsp+0x8],rdx
    47ca:	64 4c 8b 24 25 28 00 	mov    r12,QWORD PTR fs:0x28
    47d1:	00 00 
    47d3:	4c 89 64 24 28       	mov    QWORD PTR [rsp+0x28],r12
    47d8:	49 89 cc             	mov    r12,rcx
    47db:	e8 80 d8 ff ff       	call   2060 <__errno_location@plt>
    47e0:	4c 8b 35 79 58 00 00 	mov    r14,QWORD PTR [rip+0x5879]        # a060 <error_at_line@@Base+0x7a45>
    47e7:	44 8b 38             	mov    r15d,DWORD PTR [rax]
    47ea:	81 fb fe ff ff 7f    	cmp    ebx,0x7ffffffe
    47f0:	0f 87 d0 de ff ff    	ja     26c6 <error_at_line@@Base+0xab>
    47f6:	48 89 c5             	mov    rbp,rax
    47f9:	8b 05 59 58 00 00    	mov    eax,DWORD PTR [rip+0x5859]        # a058 <error_at_line@@Base+0x7a3d>
    47ff:	39 d8                	cmp    eax,ebx
    4801:	7f 70                	jg     4873 <error_at_line@@Base+0x2258>
    4803:	48 63 d0             	movsxd rdx,eax
    4806:	48 89 54 24 20       	mov    QWORD PTR [rsp+0x20],rdx
    480b:	89 da                	mov    edx,ebx
    480d:	29 c2                	sub    edx,eax
    480f:	48 8d 05 5a 58 00 00 	lea    rax,[rip+0x585a]        # a070 <error_at_line@@Base+0x7a55>
    4816:	83 c2 01             	add    edx,0x1
    4819:	48 63 d2             	movsxd rdx,edx
    481c:	49 39 c6             	cmp    r14,rax
    481f:	0f 84 43 01 00 00    	je     4968 <error_at_line@@Base+0x234d>
    4825:	4c 89 f7             	mov    rdi,r14
    4828:	48 8d 74 24 20       	lea    rsi,[rsp+0x20]
    482d:	41 b8 10 00 00 00    	mov    r8d,0x10
    4833:	b9 ff ff ff 7f       	mov    ecx,0x7fffffff
    4838:	e8 33 16 00 00       	call   5e70 <error_at_line@@Base+0x3855>
    483d:	48 89 05 1c 58 00 00 	mov    QWORD PTR [rip+0x581c],rax        # a060 <error_at_line@@Base+0x7a45>
    4844:	49 89 c6             	mov    r14,rax
    4847:	48 63 3d 0a 58 00 00 	movsxd rdi,DWORD PTR [rip+0x580a]        # a058 <error_at_line@@Base+0x7a3d>
    484e:	48 8b 54 24 20       	mov    rdx,QWORD PTR [rsp+0x20]
    4853:	31 f6                	xor    esi,esi
    4855:	48 29 fa             	sub    rdx,rdi
    4858:	48 c1 e7 04          	shl    rdi,0x4
    485c:	48 c1 e2 04          	shl    rdx,0x4
    4860:	4c 01 f7             	add    rdi,r14
    4863:	e8 e8 d8 ff ff       	call   2150 <memset@plt>
    4868:	48 8b 44 24 20       	mov    rax,QWORD PTR [rsp+0x20]
    486d:	89 05 e5 57 00 00    	mov    DWORD PTR [rip+0x57e5],eax        # a058 <error_at_line@@Base+0x7a3d>
    4873:	41 8b 44 24 04       	mov    eax,DWORD PTR [r12+0x4]
    4878:	48 c1 e3 04          	shl    rbx,0x4
    487c:	48 83 ec 08          	sub    rsp,0x8
    4880:	45 8b 04 24          	mov    r8d,DWORD PTR [r12]
    4884:	4d 8d 2c 1e          	lea    r13,[r14+rbx*1]
    4888:	49 8d 5c 24 08       	lea    rbx,[r12+0x8]
    488d:	83 c8 01             	or     eax,0x1
    4890:	49 8b 75 00          	mov    rsi,QWORD PTR [r13+0x0]
    4894:	4d 8b 75 08          	mov    r14,QWORD PTR [r13+0x8]
    4898:	89 44 24 24          	mov    DWORD PTR [rsp+0x24],eax
    489c:	41 89 c1             	mov    r9d,eax
    489f:	41 ff 74 24 30       	push   QWORD PTR [r12+0x30]
    48a4:	4c 89 f7             	mov    rdi,r14
    48a7:	41 ff 74 24 28       	push   QWORD PTR [r12+0x28]
    48ac:	53                   	push   rbx
    48ad:	48 8b 4c 24 28       	mov    rcx,QWORD PTR [rsp+0x28]
    48b2:	48 8b 54 24 20       	mov    rdx,QWORD PTR [rsp+0x20]
    48b7:	48 89 74 24 30       	mov    QWORD PTR [rsp+0x30],rsi
    48bc:	e8 3f e6 ff ff       	call   2f00 <error_at_line@@Base+0x8e5>
    48c1:	48 8b 74 24 30       	mov    rsi,QWORD PTR [rsp+0x30]
    48c6:	48 83 c4 20          	add    rsp,0x20
    48ca:	48 39 f0             	cmp    rax,rsi
    48cd:	72 6d                	jb     493c <error_at_line@@Base+0x2321>
    48cf:	48 8d 70 01          	lea    rsi,[rax+0x1]
    48d3:	48 8d 05 26 58 00 00 	lea    rax,[rip+0x5826]        # a100 <error_print_progname@@Base+0x38>
    48da:	49 89 75 00          	mov    QWORD PTR [r13+0x0],rsi
    48de:	49 39 c6             	cmp    r14,rax
    48e1:	74 12                	je     48f5 <error_at_line@@Base+0x22da>
    48e3:	4c 89 f7             	mov    rdi,r14
    48e6:	48 89 74 24 10       	mov    QWORD PTR [rsp+0x10],rsi
    48eb:	e8 40 d7 ff ff       	call   2030 <free@plt>
    48f0:	48 8b 74 24 10       	mov    rsi,QWORD PTR [rsp+0x10]
    48f5:	48 89 f7             	mov    rdi,rsi
    48f8:	48 89 74 24 10       	mov    QWORD PTR [rsp+0x10],rsi
    48fd:	e8 7e 13 00 00       	call   5c80 <error_at_line@@Base+0x3665>
    4902:	48 83 ec 08          	sub    rsp,0x8
    4906:	45 8b 04 24          	mov    r8d,DWORD PTR [r12]
    490a:	49 89 45 08          	mov    QWORD PTR [r13+0x8],rax
    490e:	48 89 c7             	mov    rdi,rax
    4911:	49 89 c6             	mov    r14,rax
    4914:	41 ff 74 24 30       	push   QWORD PTR [r12+0x30]
    4919:	41 ff 74 24 28       	push   QWORD PTR [r12+0x28]
    491e:	53                   	push   rbx
    491f:	44 8b 4c 24 3c       	mov    r9d,DWORD PTR [rsp+0x3c]
    4924:	48 8b 4c 24 28       	mov    rcx,QWORD PTR [rsp+0x28]
    4929:	48 8b 54 24 20       	mov    rdx,QWORD PTR [rsp+0x20]
    492e:	48 8b 74 24 30       	mov    rsi,QWORD PTR [rsp+0x30]
    4933:	e8 c8 e5 ff ff       	call   2f00 <error_at_line@@Base+0x8e5>
    4938:	48 83 c4 20          	add    rsp,0x20
    493c:	44 89 7d 00          	mov    DWORD PTR [rbp+0x0],r15d
    4940:	48 8b 44 24 28       	mov    rax,QWORD PTR [rsp+0x28]
    4945:	64 48 2b 04 25 28 00 	sub    rax,QWORD PTR fs:0x28
    494c:	00 00 
    494e:	75 49                	jne    4999 <error_at_line@@Base+0x237e>
    4950:	48 83 c4 38          	add    rsp,0x38
    4954:	4c 89 f0             	mov    rax,r14
    4957:	5b                   	pop    rbx
    4958:	5d                   	pop    rbp
    4959:	41 5c                	pop    r12
    495b:	41 5d                	pop    r13
    495d:	41 5e                	pop    r14
    495f:	41 5f                	pop    r15
    4961:	c3                   	ret
    4962:	66 0f 1f 44 00 00    	nop    WORD PTR [rax+rax*1+0x0]
    4968:	48 8d 74 24 20       	lea    rsi,[rsp+0x20]
    496d:	41 b8 10 00 00 00    	mov    r8d,0x10
    4973:	b9 ff ff ff 7f       	mov    ecx,0x7fffffff
    4978:	31 ff                	xor    edi,edi
    497a:	e8 f1 14 00 00       	call   5e70 <error_at_line@@Base+0x3855>
    497f:	66 0f 6f 05 e9 56 00 	movdqa xmm0,XMMWORD PTR [rip+0x56e9]        # a070 <error_at_line@@Base+0x7a55>
    4986:	00 
    4987:	48 89 05 d2 56 00 00 	mov    QWORD PTR [rip+0x56d2],rax        # a060 <error_at_line@@Base+0x7a45>
    498e:	49 89 c6             	mov    r14,rax
    4991:	0f 11 00             	movups XMMWORD PTR [rax],xmm0
    4994:	e9 ae fe ff ff       	jmp    4847 <error_at_line@@Base+0x222c>
    4999:	e8 72 d7 ff ff       	call   2110 <__stack_chk_fail@plt>
    499e:	66 90                	xchg   ax,ax
    49a0:	f3 0f 1e fa          	endbr64
    49a4:	41 54                	push   r12
    49a6:	55                   	push   rbp
    49a7:	53                   	push   rbx
    49a8:	48 89 fb             	mov    rbx,rdi
    49ab:	e8 b0 d6 ff ff       	call   2060 <__errno_location@plt>
    49b0:	48 85 db             	test   rbx,rbx
    49b3:	be 38 00 00 00       	mov    esi,0x38
    49b8:	44 8b 20             	mov    r12d,DWORD PTR [rax]
    49bb:	48 89 c5             	mov    rbp,rax
    49be:	48 8d 05 3b 58 00 00 	lea    rax,[rip+0x583b]        # a200 <error_print_progname@@Base+0x138>
    49c5:	48 0f 44 d8          	cmove  rbx,rax
    49c9:	48 89 df             	mov    rdi,rbx
    49cc:	e8 2f 16 00 00       	call   6000 <error_at_line@@Base+0x39e5>
    49d1:	44 89 65 00          	mov    DWORD PTR [rbp+0x0],r12d
    49d5:	5b                   	pop    rbx
    49d6:	5d                   	pop    rbp
    49d7:	41 5c                	pop    r12
    49d9:	c3                   	ret
    49da:	66 0f 1f 44 00 00    	nop    WORD PTR [rax+rax*1+0x0]
    49e0:	f3 0f 1e fa          	endbr64
    49e4:	48 85 ff             	test   rdi,rdi
    49e7:	48 8d 05 12 58 00 00 	lea    rax,[rip+0x5812]        # a200 <error_print_progname@@Base+0x138>
    49ee:	48 0f 44 f8          	cmove  rdi,rax
    49f2:	8b 07                	mov    eax,DWORD PTR [rdi]
    49f4:	c3                   	ret
    49f5:	66 66 2e 0f 1f 84 00 	data16 cs nop WORD PTR [rax+rax*1+0x0]
    49fc:	00 00 00 00 
    4a00:	f3 0f 1e fa          	endbr64
    4a04:	48 85 ff             	test   rdi,rdi
    4a07:	48 8d 05 f2 57 00 00 	lea    rax,[rip+0x57f2]        # a200 <error_print_progname@@Base+0x138>
    4a0e:	48 0f 44 f8          	cmove  rdi,rax
    4a12:	89 37                	mov    DWORD PTR [rdi],esi
    4a14:	c3                   	ret
    4a15:	66 66 2e 0f 1f 84 00 	data16 cs nop WORD PTR [rax+rax*1+0x0]
    4a1c:	00 00 00 00 
    4a20:	f3 0f 1e fa          	endbr64
    4a24:	48 85 ff             	test   rdi,rdi
    4a27:	48 8d 05 d2 57 00 00 	lea    rax,[rip+0x57d2]        # a200 <error_print_progname@@Base+0x138>
    4a2e:	89 f1                	mov    ecx,esi
    4a30:	48 0f 44 f8          	cmove  rdi,rax
    4a34:	89 f0                	mov    eax,esi
    4a36:	83 e1 1f             	and    ecx,0x1f
    4a39:	83 e2 01             	and    edx,0x1
    4a3c:	c0 e8 05             	shr    al,0x5
    4a3f:	0f b6 c0             	movzx  eax,al
    4a42:	48 8d 74 87 08       	lea    rsi,[rdi+rax*4+0x8]
    4a47:	8b 3e                	mov    edi,DWORD PTR [rsi]
    4a49:	89 f8                	mov    eax,edi
    4a4b:	d3 e8                	shr    eax,cl
    4a4d:	83 e0 01             	and    eax,0x1
    4a50:	31 c2                	xor    edx,eax
    4a52:	d3 e2                	shl    edx,cl
    4a54:	31 fa                	xor    edx,edi
    4a56:	89 16                	mov    DWORD PTR [rsi],edx
    4a58:	c3                   	ret
    4a59:	0f 1f 80 00 00 00 00 	nop    DWORD PTR [rax+0x0]
    4a60:	f3 0f 1e fa          	endbr64
    4a64:	48 85 ff             	test   rdi,rdi
    4a67:	48 8d 05 92 57 00 00 	lea    rax,[rip+0x5792]        # a200 <error_print_progname@@Base+0x138>
    4a6e:	48 0f 44 f8          	cmove  rdi,rax
    4a72:	8b 47 04             	mov    eax,DWORD PTR [rdi+0x4]
    4a75:	89 77 04             	mov    DWORD PTR [rdi+0x4],esi
    4a78:	c3                   	ret
    4a79:	0f 1f 80 00 00 00 00 	nop    DWORD PTR [rax+0x0]
    4a80:	f3 0f 1e fa          	endbr64
    4a84:	48 85 ff             	test   rdi,rdi
    4a87:	48 8d 05 72 57 00 00 	lea    rax,[rip+0x5772]        # a200 <error_print_progname@@Base+0x138>
    4a8e:	48 0f 44 f8          	cmove  rdi,rax
    4a92:	c7 07 0a 00 00 00    	mov    DWORD PTR [rdi],0xa
    4a98:	48 85 f6             	test   rsi,rsi
    4a9b:	0f 84 2a dc ff ff    	je     26cb <error_at_line@@Base+0xb0>
    4aa1:	48 85 d2             	test   rdx,rdx
    4aa4:	0f 84 21 dc ff ff    	je     26cb <error_at_line@@Base+0xb0>
    4aaa:	48 89 77 28          	mov    QWORD PTR [rdi+0x28],rsi
    4aae:	48 89 57 30          	mov    QWORD PTR [rdi+0x30],rdx
    4ab2:	c3                   	ret
    4ab3:	66 66 2e 0f 1f 84 00 	data16 cs nop WORD PTR [rax+rax*1+0x0]
    4aba:	00 00 00 00 
    4abe:	66 90                	xchg   ax,ax
    4ac0:	f3 0f 1e fa          	endbr64
    4ac4:	41 57                	push   r15
    4ac6:	48 8d 05 33 57 00 00 	lea    rax,[rip+0x5733]        # a200 <error_print_progname@@Base+0x138>
    4acd:	41 56                	push   r14
    4acf:	49 89 ce             	mov    r14,rcx
    4ad2:	41 55                	push   r13
    4ad4:	49 89 d5             	mov    r13,rdx
    4ad7:	41 54                	push   r12
    4ad9:	49 89 f4             	mov    r12,rsi
    4adc:	55                   	push   rbp
    4add:	53                   	push   rbx
    4ade:	4c 89 c3             	mov    rbx,r8
    4ae1:	48 83 ec 18          	sub    rsp,0x18
    4ae5:	4d 85 c0             	test   r8,r8
    4ae8:	48 0f 44 d8          	cmove  rbx,rax
    4aec:	48 89 7c 24 08       	mov    QWORD PTR [rsp+0x8],rdi
    4af1:	e8 6a d5 ff ff       	call   2060 <__errno_location@plt>
    4af6:	48 83 ec 08          	sub    rsp,0x8
    4afa:	4c 89 f1             	mov    rcx,r14
    4afd:	4c 89 ea             	mov    rdx,r13
    4b00:	8b 28                	mov    ebp,DWORD PTR [rax]
    4b02:	44 8b 4b 04          	mov    r9d,DWORD PTR [rbx+0x4]
    4b06:	48 83 c3 08          	add    rbx,0x8
    4b0a:	49 89 c7             	mov    r15,rax
    4b0d:	44 8b 43 f8          	mov    r8d,DWORD PTR [rbx-0x8]
    4b11:	ff 73 28             	push   QWORD PTR [rbx+0x28]
    4b14:	4c 89 e6             	mov    rsi,r12
    4b17:	ff 73 20             	push   QWORD PTR [rbx+0x20]
    4b1a:	53                   	push   rbx
    4b1b:	48 8b 7c 24 28       	mov    rdi,QWORD PTR [rsp+0x28]
    4b20:	e8 db e3 ff ff       	call   2f00 <error_at_line@@Base+0x8e5>
    4b25:	41 89 2f             	mov    DWORD PTR [r15],ebp
    4b28:	48 83 c4 38          	add    rsp,0x38
    4b2c:	5b                   	pop    rbx
    4b2d:	5d                   	pop    rbp
    4b2e:	41 5c                	pop    r12
    4b30:	41 5d                	pop    r13
    4b32:	41 5e                	pop    r14
    4b34:	41 5f                	pop    r15
    4b36:	c3                   	ret
    4b37:	66 0f 1f 84 00 00 00 	nop    WORD PTR [rax+rax*1+0x0]
    4b3e:	00 00 
    4b40:	f3 0f 1e fa          	endbr64
    4b44:	41 57                	push   r15
    4b46:	48 8d 05 b3 56 00 00 	lea    rax,[rip+0x56b3]        # a200 <error_print_progname@@Base+0x138>
    4b4d:	41 56                	push   r14
    4b4f:	49 89 f6             	mov    r14,rsi
    4b52:	41 55                	push   r13
    4b54:	49 89 fd             	mov    r13,rdi
    4b57:	41 54                	push   r12
    4b59:	55                   	push   rbp
    4b5a:	48 89 d5             	mov    rbp,rdx
    4b5d:	53                   	push   rbx
    4b5e:	48 89 cb             	mov    rbx,rcx
    4b61:	48 83 ec 28          	sub    rsp,0x28
    4b65:	48 85 c9             	test   rcx,rcx
    4b68:	48 0f 44 d8          	cmove  rbx,rax
    4b6c:	e8 ef d4 ff ff       	call   2060 <__errno_location@plt>
    4b71:	45 31 c9             	xor    r9d,r9d
    4b74:	48 85 ed             	test   rbp,rbp
    4b77:	4c 89 f1             	mov    rcx,r14
    4b7a:	44 8b 18             	mov    r11d,DWORD PTR [rax]
    4b7d:	41 0f 94 c1          	sete   r9b
    4b81:	4c 8d 53 08          	lea    r10,[rbx+0x8]
    4b85:	48 83 ec 08          	sub    rsp,0x8
    4b89:	44 0b 4b 04          	or     r9d,DWORD PTR [rbx+0x4]
    4b8d:	44 8b 03             	mov    r8d,DWORD PTR [rbx]
    4b90:	4c 89 ea             	mov    rdx,r13
    4b93:	31 f6                	xor    esi,esi
    4b95:	44 89 5c 24 24       	mov    DWORD PTR [rsp+0x24],r11d
    4b9a:	31 ff                	xor    edi,edi
    4b9c:	49 89 c4             	mov    r12,rax
    4b9f:	ff 73 30             	push   QWORD PTR [rbx+0x30]
    4ba2:	ff 73 28             	push   QWORD PTR [rbx+0x28]
    4ba5:	41 52                	push   r10
    4ba7:	4c 89 54 24 30       	mov    QWORD PTR [rsp+0x30],r10
    4bac:	44 89 4c 24 38       	mov    DWORD PTR [rsp+0x38],r9d
    4bb1:	e8 4a e3 ff ff       	call   2f00 <error_at_line@@Base+0x8e5>
    4bb6:	48 83 c4 20          	add    rsp,0x20
    4bba:	48 8d 70 01          	lea    rsi,[rax+0x1]
    4bbe:	49 89 c7             	mov    r15,rax
    4bc1:	48 89 f7             	mov    rdi,rsi
    4bc4:	48 89 74 24 08       	mov    QWORD PTR [rsp+0x8],rsi
    4bc9:	e8 b2 10 00 00       	call   5c80 <error_at_line@@Base+0x3665>
    4bce:	48 83 ec 08          	sub    rsp,0x8
    4bd2:	44 8b 03             	mov    r8d,DWORD PTR [rbx]
    4bd5:	ff 73 30             	push   QWORD PTR [rbx+0x30]
    4bd8:	ff 73 28             	push   QWORD PTR [rbx+0x28]
    4bdb:	48 89 c7             	mov    rdi,rax
    4bde:	4c 89 f1             	mov    rcx,r14
    4be1:	4c 89 ea             	mov    rdx,r13
    4be4:	4c 8b 54 24 28       	mov    r10,QWORD PTR [rsp+0x28]
    4be9:	41 52                	push   r10
    4beb:	48 8b 74 24 28       	mov    rsi,QWORD PTR [rsp+0x28]
    4bf0:	44 8b 4c 24 38       	mov    r9d,DWORD PTR [rsp+0x38]
    4bf5:	48 89 44 24 28       	mov    QWORD PTR [rsp+0x28],rax
    4bfa:	e8 01 e3 ff ff       	call   2f00 <error_at_line@@Base+0x8e5>
    4bff:	44 8b 5c 24 3c       	mov    r11d,DWORD PTR [rsp+0x3c]
    4c04:	48 83 c4 20          	add    rsp,0x20
    4c08:	48 85 ed             	test   rbp,rbp
    4c0b:	48 8b 7c 24 08       	mov    rdi,QWORD PTR [rsp+0x8]
    4c10:	45 89 1c 24          	mov    DWORD PTR [r12],r11d
    4c14:	74 04                	je     4c1a <error_at_line@@Base+0x25ff>
    4c16:	4c 89 7d 00          	mov    QWORD PTR [rbp+0x0],r15
    4c1a:	48 83 c4 28          	add    rsp,0x28
    4c1e:	48 89 f8             	mov    rax,rdi
    4c21:	5b                   	pop    rbx
    4c22:	5d                   	pop    rbp
    4c23:	41 5c                	pop    r12
    4c25:	41 5d                	pop    r13
    4c27:	41 5e                	pop    r14
    4c29:	41 5f                	pop    r15
    4c2b:	c3                   	ret
    4c2c:	0f 1f 40 00          	nop    DWORD PTR [rax+0x0]
    4c30:	f3 0f 1e fa          	endbr64
    4c34:	48 89 d1             	mov    rcx,rdx
    4c37:	31 d2                	xor    edx,edx
    4c39:	e9 02 ff ff ff       	jmp    4b40 <error_at_line@@Base+0x2525>
    4c3e:	66 90                	xchg   ax,ax
    4c40:	f3 0f 1e fa          	endbr64
    4c44:	8b 05 0e 54 00 00    	mov    eax,DWORD PTR [rip+0x540e]        # a058 <error_at_line@@Base+0x7a3d>
    4c4a:	41 54                	push   r12
    4c4c:	4c 8b 25 0d 54 00 00 	mov    r12,QWORD PTR [rip+0x540d]        # a060 <error_at_line@@Base+0x7a45>
    4c53:	55                   	push   rbp
    4c54:	53                   	push   rbx
    4c55:	83 f8 01             	cmp    eax,0x1
    4c58:	7e 27                	jle    4c81 <error_at_line@@Base+0x2666>
    4c5a:	83 e8 02             	sub    eax,0x2
    4c5d:	49 8d 5c 24 18       	lea    rbx,[r12+0x18]
    4c62:	48 c1 e0 04          	shl    rax,0x4
    4c66:	49 8d 6c 04 28       	lea    rbp,[r12+rax*1+0x28]
    4c6b:	0f 1f 44 00 00       	nop    DWORD PTR [rax+rax*1+0x0]
    4c70:	48 8b 3b             	mov    rdi,QWORD PTR [rbx]
    4c73:	48 83 c3 10          	add    rbx,0x10
    4c77:	e8 b4 d3 ff ff       	call   2030 <free@plt>
    4c7c:	48 39 eb             	cmp    rbx,rbp
    4c7f:	75 ef                	jne    4c70 <error_at_line@@Base+0x2655>
    4c81:	49 8b 7c 24 08       	mov    rdi,QWORD PTR [r12+0x8]
    4c86:	48 8d 1d 73 54 00 00 	lea    rbx,[rip+0x5473]        # a100 <error_print_progname@@Base+0x38>
    4c8d:	48 39 df             	cmp    rdi,rbx
    4c90:	74 17                	je     4ca9 <error_at_line@@Base+0x268e>
    4c92:	e8 99 d3 ff ff       	call   2030 <free@plt>
    4c97:	48 89 1d da 53 00 00 	mov    QWORD PTR [rip+0x53da],rbx        # a078 <error_at_line@@Base+0x7a5d>
    4c9e:	48 c7 05 c7 53 00 00 	mov    QWORD PTR [rip+0x53c7],0x100        # a070 <error_at_line@@Base+0x7a55>
    4ca5:	00 01 00 00 
    4ca9:	48 8d 1d c0 53 00 00 	lea    rbx,[rip+0x53c0]        # a070 <error_at_line@@Base+0x7a55>
    4cb0:	49 39 dc             	cmp    r12,rbx
    4cb3:	74 0f                	je     4cc4 <error_at_line@@Base+0x26a9>
    4cb5:	4c 89 e7             	mov    rdi,r12
    4cb8:	e8 73 d3 ff ff       	call   2030 <free@plt>
    4cbd:	48 89 1d 9c 53 00 00 	mov    QWORD PTR [rip+0x539c],rbx        # a060 <error_at_line@@Base+0x7a45>
    4cc4:	c7 05 8a 53 00 00 01 	mov    DWORD PTR [rip+0x538a],0x1        # a058 <error_at_line@@Base+0x7a3d>
    4ccb:	00 00 00 
    4cce:	5b                   	pop    rbx
    4ccf:	5d                   	pop    rbp
    4cd0:	41 5c                	pop    r12
    4cd2:	c3                   	ret
    4cd3:	66 66 2e 0f 1f 84 00 	data16 cs nop WORD PTR [rax+rax*1+0x0]
    4cda:	00 00 00 00 
    4cde:	66 90                	xchg   ax,ax
    4ce0:	f3 0f 1e fa          	endbr64
    4ce4:	48 8d 0d 15 55 00 00 	lea    rcx,[rip+0x5515]        # a200 <error_print_progname@@Base+0x138>
    4ceb:	48 c7 c2 ff ff ff ff 	mov    rdx,0xffffffffffffffff
    4cf2:	e9 b9 fa ff ff       	jmp    47b0 <error_at_line@@Base+0x2195>
    4cf7:	66 0f 1f 84 00 00 00 	nop    WORD PTR [rax+rax*1+0x0]
    4cfe:	00 00 
    4d00:	f3 0f 1e fa          	endbr64
    4d04:	48 8d 0d f5 54 00 00 	lea    rcx,[rip+0x54f5]        # a200 <error_print_progname@@Base+0x138>
    4d0b:	e9 a0 fa ff ff       	jmp    47b0 <error_at_line@@Base+0x2195>
    4d10:	f3 0f 1e fa          	endbr64
    4d14:	48 89 fe             	mov    rsi,rdi
    4d17:	48 8d 0d e2 54 00 00 	lea    rcx,[rip+0x54e2]        # a200 <error_print_progname@@Base+0x138>
    4d1e:	48 c7 c2 ff ff ff ff 	mov    rdx,0xffffffffffffffff
    4d25:	31 ff                	xor    edi,edi
    4d27:	e9 84 fa ff ff       	jmp    47b0 <error_at_line@@Base+0x2195>
    4d2c:	0f 1f 40 00          	nop    DWORD PTR [rax+0x0]
    4d30:	f3 0f 1e fa          	endbr64
    4d34:	48 89 f2             	mov    rdx,rsi
    4d37:	48 8d 0d c2 54 00 00 	lea    rcx,[rip+0x54c2]        # a200 <error_print_progname@@Base+0x138>
    4d3e:	48 89 fe             	mov    rsi,rdi
    4d41:	31 ff                	xor    edi,edi
    4d43:	e9 68 fa ff ff       	jmp    47b0 <error_at_line@@Base+0x2195>
    4d48:	0f 1f 84 00 00 00 00 	nop    DWORD PTR [rax+rax*1+0x0]
    4d4f:	00 
    4d50:	f3 0f 1e fa          	endbr64
    4d54:	48 83 ec 48          	sub    rsp,0x48
    4d58:	89 f0                	mov    eax,esi
    4d5a:	64 48 8b 34 25 28 00 	mov    rsi,QWORD PTR fs:0x28
    4d61:	00 00 
    4d63:	48 89 74 24 38       	mov    QWORD PTR [rsp+0x38],rsi
    4d68:	48 89 d6             	mov    rsi,rdx
    4d6b:	83 f8 0a             	cmp    eax,0xa
    4d6e:	0f 84 5d d9 ff ff    	je     26d1 <error_at_line@@Base+0xb6>
    4d74:	66 0f ef c0          	pxor   xmm0,xmm0
    4d78:	48 c7 c2 ff ff ff ff 	mov    rdx,0xffffffffffffffff
    4d7f:	48 89 e1             	mov    rcx,rsp
    4d82:	89 04 24             	mov    DWORD PTR [rsp],eax
    4d85:	0f 11 44 24 08       	movups XMMWORD PTR [rsp+0x8],xmm0
    4d8a:	0f 11 44 24 18       	movups XMMWORD PTR [rsp+0x18],xmm0
    4d8f:	66 0f ef c0          	pxor   xmm0,xmm0
    4d93:	c7 44 24 04 00 00 00 	mov    DWORD PTR [rsp+0x4],0x0
    4d9a:	00 
    4d9b:	0f 11 44 24 28       	movups XMMWORD PTR [rsp+0x28],xmm0
    4da0:	e8 0b fa ff ff       	call   47b0 <error_at_line@@Base+0x2195>
    4da5:	48 8b 54 24 38       	mov    rdx,QWORD PTR [rsp+0x38]
    4daa:	64 48 2b 14 25 28 00 	sub    rdx,QWORD PTR fs:0x28
    4db1:	00 00 
    4db3:	75 05                	jne    4dba <error_at_line@@Base+0x279f>
    4db5:	48 83 c4 48          	add    rsp,0x48
    4db9:	c3                   	ret
    4dba:	e8 51 d3 ff ff       	call   2110 <__stack_chk_fail@plt>
    4dbf:	90                   	nop
    4dc0:	f3 0f 1e fa          	endbr64
    4dc4:	48 83 ec 48          	sub    rsp,0x48
    4dc8:	89 f0                	mov    eax,esi
    4dca:	48 89 d6             	mov    rsi,rdx
    4dcd:	64 48 8b 14 25 28 00 	mov    rdx,QWORD PTR fs:0x28
    4dd4:	00 00 
    4dd6:	48 89 54 24 38       	mov    QWORD PTR [rsp+0x38],rdx
    4ddb:	48 89 ca             	mov    rdx,rcx
    4dde:	83 f8 0a             	cmp    eax,0xa
    4de1:	0f 84 ef d8 ff ff    	je     26d6 <error_at_line@@Base+0xbb>
    4de7:	66 0f ef c0          	pxor   xmm0,xmm0
    4deb:	48 89 e1             	mov    rcx,rsp
    4dee:	89 04 24             	mov    DWORD PTR [rsp],eax
    4df1:	0f 11 44 24 08       	movups XMMWORD PTR [rsp+0x8],xmm0
    4df6:	0f 11 44 24 18       	movups XMMWORD PTR [rsp+0x18],xmm0
    4dfb:	66 0f ef c0          	pxor   xmm0,xmm0
    4dff:	c7 44 24 04 00 00 00 	mov    DWORD PTR [rsp+0x4],0x0
    4e06:	00 
    4e07:	0f 11 44 24 28       	movups XMMWORD PTR [rsp+0x28],xmm0
    4e0c:	e8 9f f9 ff ff       	call   47b0 <error_at_line@@Base+0x2195>
    4e11:	48 8b 54 24 38       	mov    rdx,QWORD PTR [rsp+0x38]
    4e16:	64 48 2b 14 25 28 00 	sub    rdx,QWORD PTR fs:0x28
    4e1d:	00 00 
    4e1f:	75 05                	jne    4e26 <error_at_line@@Base+0x280b>
    4e21:	48 83 c4 48          	add    rsp,0x48
    4e25:	c3                   	ret
    4e26:	e8 e5 d2 ff ff       	call   2110 <__stack_chk_fail@plt>
    4e2b:	0f 1f 44 00 00       	nop    DWORD PTR [rax+rax*1+0x0]
    4e30:	f3 0f 1e fa          	endbr64
    4e34:	48 83 ec 48          	sub    rsp,0x48
    4e38:	64 48 8b 04 25 28 00 	mov    rax,QWORD PTR fs:0x28
    4e3f:	00 00 
    4e41:	48 89 44 24 38       	mov    QWORD PTR [rsp+0x38],rax
    4e46:	31 c0                	xor    eax,eax
    4e48:	83 ff 0a             	cmp    edi,0xa
    4e4b:	0f 84 8a d8 ff ff    	je     26db <error_at_line@@Base+0xc0>
    4e51:	66 0f ef c0          	pxor   xmm0,xmm0
    4e55:	89 3c 24             	mov    DWORD PTR [rsp],edi
    4e58:	48 c7 c2 ff ff ff ff 	mov    rdx,0xffffffffffffffff
    4e5f:	31 ff                	xor    edi,edi
    4e61:	0f 11 44 24 08       	movups XMMWORD PTR [rsp+0x8],xmm0
    4e66:	48 89 e1             	mov    rcx,rsp
    4e69:	0f 11 44 24 18       	movups XMMWORD PTR [rsp+0x18],xmm0
    4e6e:	66 0f ef c0          	pxor   xmm0,xmm0
    4e72:	c7 44 24 04 00 00 00 	mov    DWORD PTR [rsp+0x4],0x0
    4e79:	00 
    4e7a:	0f 11 44 24 28       	movups XMMWORD PTR [rsp+0x28],xmm0
    4e7f:	e8 2c f9 ff ff       	call   47b0 <error_at_line@@Base+0x2195>
    4e84:	48 8b 54 24 38       	mov    rdx,QWORD PTR [rsp+0x38]
    4e89:	64 48 2b 14 25 28 00 	sub    rdx,QWORD PTR fs:0x28
    4e90:	00 00 
    4e92:	75 05                	jne    4e99 <error_at_line@@Base+0x287e>
    4e94:	48 83 c4 48          	add    rsp,0x48
    4e98:	c3                   	ret
    4e99:	e8 72 d2 ff ff       	call   2110 <__stack_chk_fail@plt>
    4e9e:	66 90                	xchg   ax,ax
    4ea0:	f3 0f 1e fa          	endbr64
    4ea4:	48 83 ec 48          	sub    rsp,0x48
    4ea8:	64 48 8b 04 25 28 00 	mov    rax,QWORD PTR fs:0x28
    4eaf:	00 00 
    4eb1:	48 89 44 24 38       	mov    QWORD PTR [rsp+0x38],rax
    4eb6:	31 c0                	xor    eax,eax
    4eb8:	83 ff 0a             	cmp    edi,0xa
    4ebb:	0f 84 1f d8 ff ff    	je     26e0 <error_at_line@@Base+0xc5>
    4ec1:	66 0f ef c0          	pxor   xmm0,xmm0
    4ec5:	89 3c 24             	mov    DWORD PTR [rsp],edi
    4ec8:	48 89 e1             	mov    rcx,rsp
    4ecb:	31 ff                	xor    edi,edi
    4ecd:	0f 11 44 24 08       	movups XMMWORD PTR [rsp+0x8],xmm0
    4ed2:	0f 11 44 24 18       	movups XMMWORD PTR [rsp+0x18],xmm0
    4ed7:	66 0f ef c0          	pxor   xmm0,xmm0
    4edb:	c7 44 24 04 00 00 00 	mov    DWORD PTR [rsp+0x4],0x0
    4ee2:	00 
    4ee3:	0f 11 44 24 28       	movups XMMWORD PTR [rsp+0x28],xmm0
    4ee8:	e8 c3 f8 ff ff       	call   47b0 <error_at_line@@Base+0x2195>
    4eed:	48 8b 54 24 38       	mov    rdx,QWORD PTR [rsp+0x38]
    4ef2:	64 48 2b 14 25 28 00 	sub    rdx,QWORD PTR fs:0x28
    4ef9:	00 00 
    4efb:	75 05                	jne    4f02 <error_at_line@@Base+0x28e7>
    4efd:	48 83 c4 48          	add    rsp,0x48
    4f01:	c3                   	ret
    4f02:	e8 09 d2 ff ff       	call   2110 <__stack_chk_fail@plt>
    4f07:	66 0f 1f 84 00 00 00 	nop    WORD PTR [rax+rax*1+0x0]
    4f0e:	00 00 
    4f10:	f3 0f 1e fa          	endbr64
    4f14:	48 83 ec 48          	sub    rsp,0x48
    4f18:	66 0f 6f 05 e0 52 00 	movdqa xmm0,XMMWORD PTR [rip+0x52e0]        # a200 <error_print_progname@@Base+0x138>
    4f1f:	00 
    4f20:	48 8b 05 09 53 00 00 	mov    rax,QWORD PTR [rip+0x5309]        # a230 <error_print_progname@@Base+0x168>
    4f27:	64 48 8b 0c 25 28 00 	mov    rcx,QWORD PTR fs:0x28
    4f2e:	00 00 
    4f30:	48 89 4c 24 38       	mov    QWORD PTR [rsp+0x38],rcx
    4f35:	89 d1                	mov    ecx,edx
    4f37:	48 89 44 24 30       	mov    QWORD PTR [rsp+0x30],rax
    4f3c:	89 d0                	mov    eax,edx
    4f3e:	0f 29 04 24          	movaps XMMWORD PTR [rsp],xmm0
    4f42:	66 0f 6f 05 c6 52 00 	movdqa xmm0,XMMWORD PTR [rip+0x52c6]        # a210 <error_print_progname@@Base+0x148>
    4f49:	00 
    4f4a:	c0 e8 05             	shr    al,0x5
    4f4d:	0f b6 c0             	movzx  eax,al
    4f50:	0f 29 44 24 10       	movaps XMMWORD PTR [rsp+0x10],xmm0
    4f55:	66 0f 6f 05 c3 52 00 	movdqa xmm0,XMMWORD PTR [rip+0x52c3]        # a220 <error_print_progname@@Base+0x158>
    4f5c:	00 
    4f5d:	48 8d 54 84 08       	lea    rdx,[rsp+rax*4+0x8]
    4f62:	31 c0                	xor    eax,eax
    4f64:	0f 29 44 24 20       	movaps XMMWORD PTR [rsp+0x20],xmm0
    4f69:	44 8b 02             	mov    r8d,DWORD PTR [rdx]
    4f6c:	83 e1 1f             	and    ecx,0x1f
    4f6f:	41 0f a3 c8          	bt     r8d,ecx
    4f73:	0f 93 c0             	setae  al
    4f76:	d3 e0                	shl    eax,cl
    4f78:	48 89 e1             	mov    rcx,rsp
    4f7b:	44 31 c0             	xor    eax,r8d
    4f7e:	89 02                	mov    DWORD PTR [rdx],eax
    4f80:	48 89 f2             	mov    rdx,rsi
    4f83:	48 89 fe             	mov    rsi,rdi
    4f86:	31 ff                	xor    edi,edi
    4f88:	e8 23 f8 ff ff       	call   47b0 <error_at_line@@Base+0x2195>
    4f8d:	48 8b 54 24 38       	mov    rdx,QWORD PTR [rsp+0x38]
    4f92:	64 48 2b 14 25 28 00 	sub    rdx,QWORD PTR fs:0x28
    4f99:	00 00 
    4f9b:	75 05                	jne    4fa2 <error_at_line@@Base+0x2987>
    4f9d:	48 83 c4 48          	add    rsp,0x48
    4fa1:	c3                   	ret
    4fa2:	e8 69 d1 ff ff       	call   2110 <__stack_chk_fail@plt>
    4fa7:	66 0f 1f 84 00 00 00 	nop    WORD PTR [rax+rax*1+0x0]
    4fae:	00 00 
    4fb0:	f3 0f 1e fa          	endbr64
    4fb4:	48 83 ec 48          	sub    rsp,0x48
    4fb8:	66 0f 6f 05 40 52 00 	movdqa xmm0,XMMWORD PTR [rip+0x5240]        # a200 <error_print_progname@@Base+0x138>
    4fbf:	00 
    4fc0:	48 8b 05 69 52 00 00 	mov    rax,QWORD PTR [rip+0x5269]        # a230 <error_print_progname@@Base+0x168>
    4fc7:	64 48 8b 0c 25 28 00 	mov    rcx,QWORD PTR fs:0x28
    4fce:	00 00 
    4fd0:	48 89 4c 24 38       	mov    QWORD PTR [rsp+0x38],rcx
    4fd5:	89 f1                	mov    ecx,esi
    4fd7:	48 89 44 24 30       	mov    QWORD PTR [rsp+0x30],rax
    4fdc:	89 f0                	mov    eax,esi
    4fde:	0f 29 04 24          	movaps XMMWORD PTR [rsp],xmm0
    4fe2:	66 0f 6f 05 26 52 00 	movdqa xmm0,XMMWORD PTR [rip+0x5226]        # a210 <error_print_progname@@Base+0x148>
    4fe9:	00 
    4fea:	c0 e8 05             	shr    al,0x5
    4fed:	0f b6 c0             	movzx  eax,al
    4ff0:	0f 29 44 24 10       	movaps XMMWORD PTR [rsp+0x10],xmm0
    4ff5:	66 0f 6f 05 23 52 00 	movdqa xmm0,XMMWORD PTR [rip+0x5223]        # a220 <error_print_progname@@Base+0x158>
    4ffc:	00 
    4ffd:	48 8d 54 84 08       	lea    rdx,[rsp+rax*4+0x8]
    5002:	31 c0                	xor    eax,eax
    5004:	0f 29 44 24 20       	movaps XMMWORD PTR [rsp+0x20],xmm0
    5009:	8b 32                	mov    esi,DWORD PTR [rdx]
    500b:	83 e1 1f             	and    ecx,0x1f
    500e:	0f a3 ce             	bt     esi,ecx
    5011:	0f 93 c0             	setae  al
    5014:	d3 e0                	shl    eax,cl
    5016:	48 89 e1             	mov    rcx,rsp
    5019:	31 f0                	xor    eax,esi
    501b:	48 89 fe             	mov    rsi,rdi
    501e:	31 ff                	xor    edi,edi
    5020:	89 02                	mov    DWORD PTR [rdx],eax
    5022:	48 c7 c2 ff ff ff ff 	mov    rdx,0xffffffffffffffff
    5029:	e8 82 f7 ff ff       	call   47b0 <error_at_line@@Base+0x2195>
    502e:	48 8b 54 24 38       	mov    rdx,QWORD PTR [rsp+0x38]
    5033:	64 48 2b 14 25 28 00 	sub    rdx,QWORD PTR fs:0x28
    503a:	00 00 
    503c:	75 05                	jne    5043 <error_at_line@@Base+0x2a28>
    503e:	48 83 c4 48          	add    rsp,0x48
    5042:	c3                   	ret
    5043:	e8 c8 d0 ff ff       	call   2110 <__stack_chk_fail@plt>
    5048:	0f 1f 84 00 00 00 00 	nop    DWORD PTR [rax+rax*1+0x0]
    504f:	00 
    5050:	f3 0f 1e fa          	endbr64
    5054:	48 83 ec 48          	sub    rsp,0x48
    5058:	66 0f 6f 05 a0 51 00 	movdqa xmm0,XMMWORD PTR [rip+0x51a0]        # a200 <error_print_progname@@Base+0x138>
    505f:	00 
    5060:	48 8b 05 c9 51 00 00 	mov    rax,QWORD PTR [rip+0x51c9]        # a230 <error_print_progname@@Base+0x168>
    5067:	48 c7 c2 ff ff ff ff 	mov    rdx,0xffffffffffffffff
    506e:	64 48 8b 34 25 28 00 	mov    rsi,QWORD PTR fs:0x28
    5075:	00 00 
    5077:	48 89 74 24 38       	mov    QWORD PTR [rsp+0x38],rsi
    507c:	48 89 fe             	mov    rsi,rdi
    507f:	48 89 e1             	mov    rcx,rsp
    5082:	31 ff                	xor    edi,edi
    5084:	0f 29 04 24          	movaps XMMWORD PTR [rsp],xmm0
    5088:	66 0f 6f 05 80 51 00 	movdqa xmm0,XMMWORD PTR [rip+0x5180]        # a210 <error_print_progname@@Base+0x148>
    508f:	00 
    5090:	48 89 44 24 30       	mov    QWORD PTR [rsp+0x30],rax
    5095:	8b 05 71 51 00 00    	mov    eax,DWORD PTR [rip+0x5171]        # a20c <error_print_progname@@Base+0x144>
    509b:	0f 29 44 24 10       	movaps XMMWORD PTR [rsp+0x10],xmm0
    50a0:	66 0f 6f 05 78 51 00 	movdqa xmm0,XMMWORD PTR [rip+0x5178]        # a220 <error_print_progname@@Base+0x158>
    50a7:	00 
    50a8:	0d 00 00 00 04       	or     eax,0x4000000
    50ad:	89 44 24 0c          	mov    DWORD PTR [rsp+0xc],eax
    50b1:	0f 29 44 24 20       	movaps XMMWORD PTR [rsp+0x20],xmm0
    50b6:	e8 f5 f6 ff ff       	call   47b0 <error_at_line@@Base+0x2195>
    50bb:	48 8b 54 24 38       	mov    rdx,QWORD PTR [rsp+0x38]
    50c0:	64 48 2b 14 25 28 00 	sub    rdx,QWORD PTR fs:0x28
    50c7:	00 00 
    50c9:	75 05                	jne    50d0 <error_at_line@@Base+0x2ab5>
    50cb:	48 83 c4 48          	add    rsp,0x48
    50cf:	c3                   	ret
    50d0:	e8 3b d0 ff ff       	call   2110 <__stack_chk_fail@plt>
    50d5:	66 66 2e 0f 1f 84 00 	data16 cs nop WORD PTR [rax+rax*1+0x0]
    50dc:	00 00 00 00 
    50e0:	f3 0f 1e fa          	endbr64
    50e4:	48 83 ec 48          	sub    rsp,0x48
    50e8:	66 0f 6f 05 10 51 00 	movdqa xmm0,XMMWORD PTR [rip+0x5110]        # a200 <error_print_progname@@Base+0x138>
    50ef:	00 
    50f0:	48 8b 05 39 51 00 00 	mov    rax,QWORD PTR [rip+0x5139]        # a230 <error_print_progname@@Base+0x168>
    50f7:	64 48 8b 14 25 28 00 	mov    rdx,QWORD PTR fs:0x28
    50fe:	00 00 
    5100:	48 89 54 24 38       	mov    QWORD PTR [rsp+0x38],rdx
    5105:	48 89 f2             	mov    rdx,rsi
    5108:	48 89 e1             	mov    rcx,rsp
    510b:	48 89 fe             	mov    rsi,rdi
    510e:	31 ff                	xor    edi,edi
    5110:	0f 29 04 24          	movaps XMMWORD PTR [rsp],xmm0
    5114:	66 0f 6f 05 f4 50 00 	movdqa xmm0,XMMWORD PTR [rip+0x50f4]        # a210 <error_print_progname@@Base+0x148>
    511b:	00 
    511c:	48 89 44 24 30       	mov    QWORD PTR [rsp+0x30],rax
    5121:	8b 05 e5 50 00 00    	mov    eax,DWORD PTR [rip+0x50e5]        # a20c <error_print_progname@@Base+0x144>
    5127:	0f 29 44 24 10       	movaps XMMWORD PTR [rsp+0x10],xmm0
    512c:	66 0f 6f 05 ec 50 00 	movdqa xmm0,XMMWORD PTR [rip+0x50ec]        # a220 <error_print_progname@@Base+0x158>
    5133:	00 
    5134:	0d 00 00 00 04       	or     eax,0x4000000
    5139:	89 44 24 0c          	mov    DWORD PTR [rsp+0xc],eax
    513d:	0f 29 44 24 20       	movaps XMMWORD PTR [rsp+0x20],xmm0
    5142:	e8 69 f6 ff ff       	call   47b0 <error_at_line@@Base+0x2195>
    5147:	48 8b 54 24 38       	mov    rdx,QWORD PTR [rsp+0x38]
    514c:	64 48 2b 14 25 28 00 	sub    rdx,QWORD PTR fs:0x28
    5153:	00 00 
    5155:	75 05                	jne    515c <error_at_line@@Base+0x2b41>
    5157:	48 83 c4 48          	add    rsp,0x48
    515b:	c3                   	ret
    515c:	e8 af cf ff ff       	call   2110 <__stack_chk_fail@plt>
    5161:	66 66 2e 0f 1f 84 00 	data16 cs nop WORD PTR [rax+rax*1+0x0]
    5168:	00 00 00 00 
    516c:	0f 1f 40 00          	nop    DWORD PTR [rax+0x0]
    5170:	f3 0f 1e fa          	endbr64
    5174:	48 83 ec 48          	sub    rsp,0x48
    5178:	89 f0                	mov    eax,esi
    517a:	64 48 8b 34 25 28 00 	mov    rsi,QWORD PTR fs:0x28
    5181:	00 00 
    5183:	48 89 74 24 38       	mov    QWORD PTR [rsp+0x38],rsi
    5188:	48 89 d6             	mov    rsi,rdx
    518b:	83 f8 0a             	cmp    eax,0xa
    518e:	0f 84 51 d5 ff ff    	je     26e5 <error_at_line@@Base+0xca>
    5194:	66 0f ef c0          	pxor   xmm0,xmm0
    5198:	48 c7 c2 ff ff ff ff 	mov    rdx,0xffffffffffffffff
    519f:	48 89 e1             	mov    rcx,rsp
    51a2:	89 04 24             	mov    DWORD PTR [rsp],eax
    51a5:	0f 11 44 24 28       	movups XMMWORD PTR [rsp+0x28],xmm0
    51aa:	66 0f 6f 05 1e 29 00 	movdqa xmm0,XMMWORD PTR [rip+0x291e]        # 7ad0 <error_at_line@@Base+0x54b5>
    51b1:	00 
    51b2:	c7 44 24 04 00 00 00 	mov    DWORD PTR [rsp+0x4],0x0
    51b9:	00 
    51ba:	0f 11 44 24 08       	movups XMMWORD PTR [rsp+0x8],xmm0
    51bf:	66 0f ef c0          	pxor   xmm0,xmm0
    51c3:	0f 11 44 24 18       	movups XMMWORD PTR [rsp+0x18],xmm0
    51c8:	e8 e3 f5 ff ff       	call   47b0 <error_at_line@@Base+0x2195>
    51cd:	48 8b 54 24 38       	mov    rdx,QWORD PTR [rsp+0x38]
    51d2:	64 48 2b 14 25 28 00 	sub    rdx,QWORD PTR fs:0x28
    51d9:	00 00 
    51db:	75 05                	jne    51e2 <error_at_line@@Base+0x2bc7>
    51dd:	48 83 c4 48          	add    rsp,0x48
    51e1:	c3                   	ret
    51e2:	e8 29 cf ff ff       	call   2110 <__stack_chk_fail@plt>
    51e7:	66 0f 1f 84 00 00 00 	nop    WORD PTR [rax+rax*1+0x0]
    51ee:	00 00 
    51f0:	f3 0f 1e fa          	endbr64
    51f4:	48 83 ec 48          	sub    rsp,0x48
    51f8:	66 0f 6f 05 00 50 00 	movdqa xmm0,XMMWORD PTR [rip+0x5000]        # a200 <error_print_progname@@Base+0x138>
    51ff:	00 
    5200:	48 89 f0             	mov    rax,rsi
    5203:	64 48 8b 34 25 28 00 	mov    rsi,QWORD PTR fs:0x28
    520a:	00 00 
    520c:	48 89 74 24 38       	mov    QWORD PTR [rsp+0x38],rsi
    5211:	48 89 ce             	mov    rsi,rcx
    5214:	48 8b 0d 15 50 00 00 	mov    rcx,QWORD PTR [rip+0x5015]        # a230 <error_print_progname@@Base+0x168>
    521b:	0f 29 04 24          	movaps XMMWORD PTR [rsp],xmm0
    521f:	66 0f 6f 05 e9 4f 00 	movdqa xmm0,XMMWORD PTR [rip+0x4fe9]        # a210 <error_print_progname@@Base+0x148>
    5226:	00 
    5227:	48 89 4c 24 30       	mov    QWORD PTR [rsp+0x30],rcx
    522c:	0f 29 44 24 10       	movaps XMMWORD PTR [rsp+0x10],xmm0
    5231:	66 0f 6f 05 e7 4f 00 	movdqa xmm0,XMMWORD PTR [rip+0x4fe7]        # a220 <error_print_progname@@Base+0x158>
    5238:	00 
    5239:	c7 04 24 0a 00 00 00 	mov    DWORD PTR [rsp],0xa
    5240:	0f 29 44 24 20       	movaps XMMWORD PTR [rsp+0x20],xmm0
    5245:	48 85 c0             	test   rax,rax
    5248:	0f 84 9c d4 ff ff    	je     26ea <error_at_line@@Base+0xcf>
    524e:	48 85 d2             	test   rdx,rdx
    5251:	0f 84 93 d4 ff ff    	je     26ea <error_at_line@@Base+0xcf>
    5257:	48 89 54 24 30       	mov    QWORD PTR [rsp+0x30],rdx
    525c:	48 89 e1             	mov    rcx,rsp
    525f:	48 c7 c2 ff ff ff ff 	mov    rdx,0xffffffffffffffff
    5266:	48 89 44 24 28       	mov    QWORD PTR [rsp+0x28],rax
    526b:	e8 40 f5 ff ff       	call   47b0 <error_at_line@@Base+0x2195>
    5270:	48 8b 54 24 38       	mov    rdx,QWORD PTR [rsp+0x38]
    5275:	64 48 2b 14 25 28 00 	sub    rdx,QWORD PTR fs:0x28
    527c:	00 00 
    527e:	75 05                	jne    5285 <error_at_line@@Base+0x2c6a>
    5280:	48 83 c4 48          	add    rsp,0x48
    5284:	c3                   	ret
    5285:	e8 86 ce ff ff       	call   2110 <__stack_chk_fail@plt>
    528a:	66 0f 1f 44 00 00    	nop    WORD PTR [rax+rax*1+0x0]
    5290:	f3 0f 1e fa          	endbr64
    5294:	48 83 ec 48          	sub    rsp,0x48
    5298:	66 0f 6f 05 60 4f 00 	movdqa xmm0,XMMWORD PTR [rip+0x4f60]        # a200 <error_print_progname@@Base+0x138>
    529f:	00 
    52a0:	41 89 f9             	mov    r9d,edi
    52a3:	48 89 f7             	mov    rdi,rsi
    52a6:	64 48 8b 34 25 28 00 	mov    rsi,QWORD PTR fs:0x28
    52ad:	00 00 
    52af:	48 89 74 24 38       	mov    QWORD PTR [rsp+0x38],rsi
    52b4:	48 89 ce             	mov    rsi,rcx
    52b7:	48 8b 0d 72 4f 00 00 	mov    rcx,QWORD PTR [rip+0x4f72]        # a230 <error_print_progname@@Base+0x168>
    52be:	0f 29 04 24          	movaps XMMWORD PTR [rsp],xmm0
    52c2:	66 0f 6f 05 46 4f 00 	movdqa xmm0,XMMWORD PTR [rip+0x4f46]        # a210 <error_print_progname@@Base+0x148>
    52c9:	00 
    52ca:	48 89 4c 24 30       	mov    QWORD PTR [rsp+0x30],rcx
    52cf:	0f 29 44 24 10       	movaps XMMWORD PTR [rsp+0x10],xmm0
    52d4:	66 0f 6f 05 44 4f 00 	movdqa xmm0,XMMWORD PTR [rip+0x4f44]        # a220 <error_print_progname@@Base+0x158>
    52db:	00 
    52dc:	c7 04 24 0a 00 00 00 	mov    DWORD PTR [rsp],0xa
    52e3:	0f 29 44 24 20       	movaps XMMWORD PTR [rsp+0x20],xmm0
    52e8:	48 85 ff             	test   rdi,rdi
    52eb:	0f 84 fe d3 ff ff    	je     26ef <error_at_line@@Base+0xd4>
    52f1:	48 89 d0             	mov    rax,rdx
    52f4:	48 85 d2             	test   rdx,rdx
    52f7:	0f 84 f2 d3 ff ff    	je     26ef <error_at_line@@Base+0xd4>
    52fd:	48 89 7c 24 28       	mov    QWORD PTR [rsp+0x28],rdi
    5302:	4c 89 c2             	mov    rdx,r8
    5305:	48 89 e1             	mov    rcx,rsp
    5308:	44 89 cf             	mov    edi,r9d
    530b:	48 89 44 24 30       	mov    QWORD PTR [rsp+0x30],rax
    5310:	e8 9b f4 ff ff       	call   47b0 <error_at_line@@Base+0x2195>
    5315:	48 8b 54 24 38       	mov    rdx,QWORD PTR [rsp+0x38]
    531a:	64 48 2b 14 25 28 00 	sub    rdx,QWORD PTR fs:0x28
    5321:	00 00 
    5323:	75 05                	jne    532a <error_at_line@@Base+0x2d0f>
    5325:	48 83 c4 48          	add    rsp,0x48
    5329:	c3                   	ret
    532a:	e8 e1 cd ff ff       	call   2110 <__stack_chk_fail@plt>
    532f:	90                   	nop
    5330:	f3 0f 1e fa          	endbr64
    5334:	48 83 ec 48          	sub    rsp,0x48
    5338:	66 0f 6f 05 c0 4e 00 	movdqa xmm0,XMMWORD PTR [rip+0x4ec0]        # a200 <error_print_progname@@Base+0x138>
    533f:	00 
    5340:	48 89 f0             	mov    rax,rsi
    5343:	64 48 8b 34 25 28 00 	mov    rsi,QWORD PTR fs:0x28
    534a:	00 00 
    534c:	48 89 74 24 38       	mov    QWORD PTR [rsp+0x38],rsi
    5351:	48 89 d6             	mov    rsi,rdx
    5354:	48 8b 15 d5 4e 00 00 	mov    rdx,QWORD PTR [rip+0x4ed5]        # a230 <error_print_progname@@Base+0x168>
    535b:	0f 29 04 24          	movaps XMMWORD PTR [rsp],xmm0
    535f:	66 0f 6f 05 a9 4e 00 	movdqa xmm0,XMMWORD PTR [rip+0x4ea9]        # a210 <error_print_progname@@Base+0x148>
    5366:	00 
    5367:	48 89 54 24 30       	mov    QWORD PTR [rsp+0x30],rdx
    536c:	0f 29 44 24 10       	movaps XMMWORD PTR [rsp+0x10],xmm0
    5371:	66 0f 6f 05 a7 4e 00 	movdqa xmm0,XMMWORD PTR [rip+0x4ea7]        # a220 <error_print_progname@@Base+0x158>
    5378:	00 
    5379:	c7 04 24 0a 00 00 00 	mov    DWORD PTR [rsp],0xa
    5380:	0f 29 44 24 20       	movaps XMMWORD PTR [rsp+0x20],xmm0
    5385:	48 85 ff             	test   rdi,rdi
    5388:	0f 84 66 d3 ff ff    	je     26f4 <error_at_line@@Base+0xd9>
    538e:	48 85 c0             	test   rax,rax
    5391:	0f 84 5d d3 ff ff    	je     26f4 <error_at_line@@Base+0xd9>
    5397:	48 89 7c 24 28       	mov    QWORD PTR [rsp+0x28],rdi
    539c:	48 c7 c2 ff ff ff ff 	mov    rdx,0xffffffffffffffff
    53a3:	31 ff                	xor    edi,edi
    53a5:	48 89 e1             	mov    rcx,rsp
    53a8:	48 89 44 24 30       	mov    QWORD PTR [rsp+0x30],rax
    53ad:	e8 fe f3 ff ff       	call   47b0 <error_at_line@@Base+0x2195>
    53b2:	48 8b 54 24 38       	mov    rdx,QWORD PTR [rsp+0x38]
    53b7:	64 48 2b 14 25 28 00 	sub    rdx,QWORD PTR fs:0x28
    53be:	00 00 
    53c0:	75 05                	jne    53c7 <error_at_line@@Base+0x2dac>
    53c2:	48 83 c4 48          	add    rsp,0x48
    53c6:	c3                   	ret
    53c7:	e8 44 cd ff ff       	call   2110 <__stack_chk_fail@plt>
    53cc:	0f 1f 40 00          	nop    DWORD PTR [rax+0x0]
    53d0:	f3 0f 1e fa          	endbr64
    53d4:	48 83 ec 48          	sub    rsp,0x48
    53d8:	66 0f 6f 05 20 4e 00 	movdqa xmm0,XMMWORD PTR [rip+0x4e20]        # a200 <error_print_progname@@Base+0x138>
    53df:	00 
    53e0:	48 89 f0             	mov    rax,rsi
    53e3:	48 89 d6             	mov    rsi,rdx
    53e6:	64 48 8b 14 25 28 00 	mov    rdx,QWORD PTR fs:0x28
    53ed:	00 00 
    53ef:	48 89 54 24 38       	mov    QWORD PTR [rsp+0x38],rdx
    53f4:	48 89 ca             	mov    rdx,rcx
    53f7:	48 8b 0d 32 4e 00 00 	mov    rcx,QWORD PTR [rip+0x4e32]        # a230 <error_print_progname@@Base+0x168>
    53fe:	0f 29 04 24          	movaps XMMWORD PTR [rsp],xmm0
    5402:	66 0f 6f 05 06 4e 00 	movdqa xmm0,XMMWORD PTR [rip+0x4e06]        # a210 <error_print_progname@@Base+0x148>
    5409:	00 
    540a:	48 89 4c 24 30       	mov    QWORD PTR [rsp+0x30],rcx
    540f:	0f 29 44 24 10       	movaps XMMWORD PTR [rsp+0x10],xmm0
    5414:	66 0f 6f 05 04 4e 00 	movdqa xmm0,XMMWORD PTR [rip+0x4e04]        # a220 <error_print_progname@@Base+0x158>
    541b:	00 
    541c:	c7 04 24 0a 00 00 00 	mov    DWORD PTR [rsp],0xa
    5423:	0f 29 44 24 20       	movaps XMMWORD PTR [rsp+0x20],xmm0
    5428:	48 85 ff             	test   rdi,rdi
    542b:	0f 84 c8 d2 ff ff    	je     26f9 <error_at_line@@Base+0xde>
    5431:	48 85 c0             	test   rax,rax
    5434:	0f 84 bf d2 ff ff    	je     26f9 <error_at_line@@Base+0xde>
    543a:	48 89 7c 24 28       	mov    QWORD PTR [rsp+0x28],rdi
    543f:	48 89 e1             	mov    rcx,rsp
    5442:	31 ff                	xor    edi,edi
    5444:	48 89 44 24 30       	mov    QWORD PTR [rsp+0x30],rax
    5449:	e8 62 f3 ff ff       	call   47b0 <error_at_line@@Base+0x2195>
    544e:	48 8b 54 24 38       	mov    rdx,QWORD PTR [rsp+0x38]
    5453:	64 48 2b 14 25 28 00 	sub    rdx,QWORD PTR fs:0x28
    545a:	00 00 
    545c:	75 05                	jne    5463 <error_at_line@@Base+0x2e48>
    545e:	48 83 c4 48          	add    rsp,0x48
    5462:	c3                   	ret
    5463:	e8 a8 cc ff ff       	call   2110 <__stack_chk_fail@plt>
    5468:	0f 1f 84 00 00 00 00 	nop    DWORD PTR [rax+rax*1+0x0]
    546f:	00 
    5470:	f3 0f 1e fa          	endbr64
    5474:	48 8d 0d a5 4b 00 00 	lea    rcx,[rip+0x4ba5]        # a020 <error_at_line@@Base+0x7a05>
    547b:	e9 30 f3 ff ff       	jmp    47b0 <error_at_line@@Base+0x2195>
    5480:	f3 0f 1e fa          	endbr64
    5484:	48 89 f2             	mov    rdx,rsi
    5487:	48 8d 0d 92 4b 00 00 	lea    rcx,[rip+0x4b92]        # a020 <error_at_line@@Base+0x7a05>
    548e:	48 89 fe             	mov    rsi,rdi
    5491:	31 ff                	xor    edi,edi
    5493:	e9 18 f3 ff ff       	jmp    47b0 <error_at_line@@Base+0x2195>
    5498:	0f 1f 84 00 00 00 00 	nop    DWORD PTR [rax+rax*1+0x0]
    549f:	00 
    54a0:	f3 0f 1e fa          	endbr64
    54a4:	48 8d 0d 75 4b 00 00 	lea    rcx,[rip+0x4b75]        # a020 <error_at_line@@Base+0x7a05>
    54ab:	48 c7 c2 ff ff ff ff 	mov    rdx,0xffffffffffffffff
    54b2:	e9 f9 f2 ff ff       	jmp    47b0 <error_at_line@@Base+0x2195>
    54b7:	66 0f 1f 84 00 00 00 	nop    WORD PTR [rax+rax*1+0x0]
    54be:	00 00 
    54c0:	f3 0f 1e fa          	endbr64
    54c4:	48 89 fe             	mov    rsi,rdi
    54c7:	48 8d 0d 52 4b 00 00 	lea    rcx,[rip+0x4b52]        # a020 <error_at_line@@Base+0x7a05>
    54ce:	48 c7 c2 ff ff ff ff 	mov    rdx,0xffffffffffffffff
    54d5:	31 ff                	xor    edi,edi
    54d7:	e9 d4 f2 ff ff       	jmp    47b0 <error_at_line@@Base+0x2195>
    54dc:	0f 1f 40 00          	nop    DWORD PTR [rax+0x0]
    54e0:	f3 0f 1e fa          	endbr64
    54e4:	41 57                	push   r15
    54e6:	41 56                	push   r14
    54e8:	41 55                	push   r13
    54ea:	4d 89 cd             	mov    r13,r9
    54ed:	41 54                	push   r12
    54ef:	55                   	push   rbp
    54f0:	4c 89 c5             	mov    rbp,r8
    54f3:	53                   	push   rbx
    54f4:	48 89 fb             	mov    rbx,rdi
    54f7:	48 83 ec 38          	sub    rsp,0x38
    54fb:	48 85 f6             	test   rsi,rsi
    54fe:	0f 84 84 01 00 00    	je     5688 <error_at_line@@Base+0x306d>
    5504:	49 89 c9             	mov    r9,rcx
    5507:	49 89 d0             	mov    r8,rdx
    550a:	48 89 f1             	mov    rcx,rsi
    550d:	31 c0                	xor    eax,eax
    550f:	48 8d 15 7c 1c 00 00 	lea    rdx,[rip+0x1c7c]        # 7192 <error_at_line@@Base+0x4b77>
    5516:	be 01 00 00 00       	mov    esi,0x1
    551b:	e8 80 cd ff ff       	call   22a0 <__fprintf_chk@plt>
    5520:	4c 8d 25 c6 1b 00 00 	lea    r12,[rip+0x1bc6]        # 70ed <error_at_line@@Base+0x4ad2>
    5527:	ba 05 00 00 00       	mov    edx,0x5
    552c:	48 8d 35 72 1c 00 00 	lea    rsi,[rip+0x1c72]        # 71a5 <error_at_line@@Base+0x4b8a>
    5533:	4c 89 e7             	mov    rdi,r12
    5536:	e8 a5 cb ff ff       	call   20e0 <dcgettext@plt>
    553b:	4c 8d 05 78 1c 00 00 	lea    r8,[rip+0x1c78]        # 71ba <error_at_line@@Base+0x4b9f>
    5542:	be 01 00 00 00       	mov    esi,0x1
    5547:	48 89 df             	mov    rdi,rbx
    554a:	48 89 c2             	mov    rdx,rax
    554d:	48 8d 0d 6c 1c 00 00 	lea    rcx,[rip+0x1c6c]        # 71c0 <error_at_line@@Base+0x4ba5>
    5554:	31 c0                	xor    eax,eax
    5556:	e8 45 cd ff ff       	call   22a0 <__fprintf_chk@plt>
    555b:	ba 05 00 00 00       	mov    edx,0x5
    5560:	48 8d 35 60 1c 00 00 	lea    rsi,[rip+0x1c60]        # 71c7 <error_at_line@@Base+0x4bac>
    5567:	4c 89 e7             	mov    rdi,r12
    556a:	e8 71 cb ff ff       	call   20e0 <dcgettext@plt>
    556f:	41 b8 e9 07 00 00    	mov    r8d,0x7e9
    5575:	be 01 00 00 00       	mov    esi,0x1
    557a:	48 89 df             	mov    rdi,rbx
    557d:	48 89 c1             	mov    rcx,rax
    5580:	48 8d 15 99 25 00 00 	lea    rdx,[rip+0x2599]        # 7b20 <error_at_line@@Base+0x5505>
    5587:	31 c0                	xor    eax,eax
    5589:	e8 12 cd ff ff       	call   22a0 <__fprintf_chk@plt>
    558e:	48 89 de             	mov    rsi,rbx
    5591:	bf 0a 00 00 00       	mov    edi,0xa
    5596:	e8 15 cc ff ff       	call   21b0 <fputc_unlocked@plt>
    559b:	ba 05 00 00 00       	mov    edx,0x5
    55a0:	48 8d 35 69 1f 00 00 	lea    rsi,[rip+0x1f69]        # 7510 <error_at_line@@Base+0x4ef5>
    55a7:	4c 89 e7             	mov    rdi,r12
    55aa:	e8 31 cb ff ff       	call   20e0 <dcgettext@plt>
    55af:	be 01 00 00 00       	mov    esi,0x1
    55b4:	48 89 df             	mov    rdi,rbx
    55b7:	48 8d 0d 02 20 00 00 	lea    rcx,[rip+0x2002]        # 75c0 <error_at_line@@Base+0x4fa5>
    55be:	48 89 c2             	mov    rdx,rax
    55c1:	31 c0                	xor    eax,eax
    55c3:	e8 d8 cc ff ff       	call   22a0 <__fprintf_chk@plt>
    55c8:	48 89 de             	mov    rsi,rbx
    55cb:	bf 0a 00 00 00       	mov    edi,0xa
    55d0:	e8 db cb ff ff       	call   21b0 <fputc_unlocked@plt>
    55d5:	49 83 fd 09          	cmp    r13,0x9
    55d9:	0f 87 77 03 00 00    	ja     5956 <error_at_line@@Base+0x333b>
    55df:	48 8d 15 fa 24 00 00 	lea    rdx,[rip+0x24fa]        # 7ae0 <error_at_line@@Base+0x54c5>
    55e6:	4a 63 04 aa          	movsxd rax,DWORD PTR [rdx+r13*4]
    55ea:	48 01 d0             	add    rax,rdx
    55ed:	3e ff e0             	notrack jmp rax
    55f0:	4c 8b 55 38          	mov    r10,QWORD PTR [rbp+0x38]
    55f4:	4c 8b 4d 30          	mov    r9,QWORD PTR [rbp+0x30]
    55f8:	ba 05 00 00 00       	mov    edx,0x5
    55fd:	4c 89 e7             	mov    rdi,r12
    5600:	48 8b 45 10          	mov    rax,QWORD PTR [rbp+0x10]
    5604:	4c 8b 45 08          	mov    r8,QWORD PTR [rbp+0x8]
    5608:	48 8d 35 79 20 00 00 	lea    rsi,[rip+0x2079]        # 7688 <error_at_line@@Base+0x506d>
    560f:	4c 8b 75 28          	mov    r14,QWORD PTR [rbp+0x28]
    5613:	4c 8b 6d 20          	mov    r13,QWORD PTR [rbp+0x20]
    5617:	4c 89 54 24 20       	mov    QWORD PTR [rsp+0x20],r10
    561c:	4c 89 4c 24 18       	mov    QWORD PTR [rsp+0x18],r9
    5621:	4c 8b 7d 18          	mov    r15,QWORD PTR [rbp+0x18]
    5625:	48 89 44 24 08       	mov    QWORD PTR [rsp+0x8],rax
    562a:	48 8b 6d 00          	mov    rbp,QWORD PTR [rbp+0x0]
    562e:	4c 89 44 24 10       	mov    QWORD PTR [rsp+0x10],r8
    5633:	e8 a8 ca ff ff       	call   20e0 <dcgettext@plt>
    5638:	48 83 ec 08          	sub    rsp,0x8
    563c:	48 89 c2             	mov    rdx,rax
    563f:	4c 8b 54 24 28       	mov    r10,QWORD PTR [rsp+0x28]
    5644:	48 89 e9             	mov    rcx,rbp
    5647:	be 01 00 00 00       	mov    esi,0x1
    564c:	48 89 df             	mov    rdi,rbx
    564f:	31 c0                	xor    eax,eax
    5651:	41 52                	push   r10
    5653:	4c 8b 4c 24 28       	mov    r9,QWORD PTR [rsp+0x28]
    5658:	41 51                	push   r9
    565a:	41 56                	push   r14
    565c:	41 55                	push   r13
    565e:	41 57                	push   r15
    5660:	4c 8b 4c 24 38       	mov    r9,QWORD PTR [rsp+0x38]
    5665:	4c 8b 44 24 40       	mov    r8,QWORD PTR [rsp+0x40]
    566a:	e8 31 cc ff ff       	call   22a0 <__fprintf_chk@plt>
    566f:	48 83 c4 30          	add    rsp,0x30
    5673:	48 83 c4 38          	add    rsp,0x38
    5677:	5b                   	pop    rbx
    5678:	5d                   	pop    rbp
    5679:	41 5c                	pop    r12
    567b:	41 5d                	pop    r13
    567d:	41 5e                	pop    r14
    567f:	41 5f                	pop    r15
    5681:	c3                   	ret
    5682:	66 0f 1f 44 00 00    	nop    WORD PTR [rax+rax*1+0x0]
    5688:	49 89 c8             	mov    r8,rcx
    568b:	be 01 00 00 00       	mov    esi,0x1
    5690:	48 89 d1             	mov    rcx,rdx
    5693:	31 c0                	xor    eax,eax
    5695:	48 8d 15 02 1b 00 00 	lea    rdx,[rip+0x1b02]        # 719e <error_at_line@@Base+0x4b83>
    569c:	e8 ff cb ff ff       	call   22a0 <__fprintf_chk@plt>
    56a1:	e9 7a fe ff ff       	jmp    5520 <error_at_line@@Base+0x2f05>
    56a6:	66 2e 0f 1f 84 00 00 	cs nop WORD PTR [rax+rax*1+0x0]
    56ad:	00 00 00 
    56b0:	4c 8b 5d 40          	mov    r11,QWORD PTR [rbp+0x40]
    56b4:	4c 8b 55 38          	mov    r10,QWORD PTR [rbp+0x38]
    56b8:	ba 05 00 00 00       	mov    edx,0x5
    56bd:	48 8d 35 f4 1f 00 00 	lea    rsi,[rip+0x1ff4]        # 76b8 <error_at_line@@Base+0x509d>
    56c4:	4c 8b 4d 30          	mov    r9,QWORD PTR [rbp+0x30]
    56c8:	48 8b 45 10          	mov    rax,QWORD PTR [rbp+0x10]
    56cc:	4c 8b 45 08          	mov    r8,QWORD PTR [rbp+0x8]
    56d0:	4c 8b 75 28          	mov    r14,QWORD PTR [rbp+0x28]
    56d4:	4c 89 5c 24 28       	mov    QWORD PTR [rsp+0x28],r11
    56d9:	4c 8b 6d 20          	mov    r13,QWORD PTR [rbp+0x20]
    56dd:	4c 8b 7d 18          	mov    r15,QWORD PTR [rbp+0x18]
    56e1:	4c 89 54 24 20       	mov    QWORD PTR [rsp+0x20],r10
    56e6:	4c 89 4c 24 18       	mov    QWORD PTR [rsp+0x18],r9
    56eb:	48 8b 6d 00          	mov    rbp,QWORD PTR [rbp+0x0]
    56ef:	48 89 44 24 08       	mov    QWORD PTR [rsp+0x8],rax
    56f4:	4c 89 44 24 10       	mov    QWORD PTR [rsp+0x10],r8
    56f9:	4c 89 e7             	mov    rdi,r12
    56fc:	e8 df c9 ff ff       	call   20e0 <dcgettext@plt>
    5701:	4c 8b 5c 24 28       	mov    r11,QWORD PTR [rsp+0x28]
    5706:	48 89 c2             	mov    rdx,rax
    5709:	41 53                	push   r11
    570b:	e9 2f ff ff ff       	jmp    563f <error_at_line@@Base+0x3024>
    5710:	48 8b 6d 00          	mov    rbp,QWORD PTR [rbp+0x0]
    5714:	4c 89 e7             	mov    rdi,r12
    5717:	ba 05 00 00 00       	mov    edx,0x5
    571c:	48 8d 35 a8 1a 00 00 	lea    rsi,[rip+0x1aa8]        # 71cb <error_at_line@@Base+0x4bb0>
    5723:	e8 b8 c9 ff ff       	call   20e0 <dcgettext@plt>
    5728:	48 83 c4 38          	add    rsp,0x38
    572c:	48 89 df             	mov    rdi,rbx
    572f:	be 01 00 00 00       	mov    esi,0x1
    5734:	5b                   	pop    rbx
    5735:	48 89 c2             	mov    rdx,rax
    5738:	48 89 e9             	mov    rcx,rbp
    573b:	31 c0                	xor    eax,eax
    573d:	5d                   	pop    rbp
    573e:	41 5c                	pop    r12
    5740:	41 5d                	pop    r13
    5742:	41 5e                	pop    r14
    5744:	41 5f                	pop    r15
    5746:	e9 55 cb ff ff       	jmp    22a0 <__fprintf_chk@plt>
    574b:	0f 1f 44 00 00       	nop    DWORD PTR [rax+rax*1+0x0]
    5750:	4c 8b 6d 08          	mov    r13,QWORD PTR [rbp+0x8]
    5754:	4c 89 e7             	mov    rdi,r12
    5757:	48 8b 6d 00          	mov    rbp,QWORD PTR [rbp+0x0]
    575b:	ba 05 00 00 00       	mov    edx,0x5
    5760:	48 8d 35 74 1a 00 00 	lea    rsi,[rip+0x1a74]        # 71db <error_at_line@@Base+0x4bc0>
    5767:	e8 74 c9 ff ff       	call   20e0 <dcgettext@plt>
    576c:	48 83 c4 38          	add    rsp,0x38
    5770:	4d 89 e8             	mov    r8,r13
    5773:	48 89 e9             	mov    rcx,rbp
    5776:	48 89 c2             	mov    rdx,rax
    5779:	48 89 df             	mov    rdi,rbx
    577c:	be 01 00 00 00       	mov    esi,0x1
    5781:	5b                   	pop    rbx
    5782:	31 c0                	xor    eax,eax
    5784:	5d                   	pop    rbp
    5785:	41 5c                	pop    r12
    5787:	41 5d                	pop    r13
    5789:	41 5e                	pop    r14
    578b:	41 5f                	pop    r15
    578d:	e9 0e cb ff ff       	jmp    22a0 <__fprintf_chk@plt>
    5792:	66 0f 1f 44 00 00    	nop    WORD PTR [rax+rax*1+0x0]
    5798:	4c 8b 75 10          	mov    r14,QWORD PTR [rbp+0x10]
    579c:	4c 8b 6d 08          	mov    r13,QWORD PTR [rbp+0x8]
    57a0:	4c 89 e7             	mov    rdi,r12
    57a3:	ba 05 00 00 00       	mov    edx,0x5
    57a8:	48 8b 6d 00          	mov    rbp,QWORD PTR [rbp+0x0]
    57ac:	48 8d 35 3f 1a 00 00 	lea    rsi,[rip+0x1a3f]        # 71f2 <error_at_line@@Base+0x4bd7>
    57b3:	e8 28 c9 ff ff       	call   20e0 <dcgettext@plt>
    57b8:	48 83 c4 38          	add    rsp,0x38
    57bc:	4d 89 f1             	mov    r9,r14
    57bf:	4d 89 e8             	mov    r8,r13
    57c2:	48 89 c2             	mov    rdx,rax
    57c5:	48 89 e9             	mov    rcx,rbp
    57c8:	48 89 df             	mov    rdi,rbx
    57cb:	be 01 00 00 00       	mov    esi,0x1
    57d0:	5b                   	pop    rbx
    57d1:	31 c0                	xor    eax,eax
    57d3:	5d                   	pop    rbp
    57d4:	41 5c                	pop    r12
    57d6:	41 5d                	pop    r13
    57d8:	41 5e                	pop    r14
    57da:	41 5f                	pop    r15
    57dc:	e9 bf ca ff ff       	jmp    22a0 <__fprintf_chk@plt>
    57e1:	0f 1f 80 00 00 00 00 	nop    DWORD PTR [rax+0x0]
    57e8:	4c 8b 7d 18          	mov    r15,QWORD PTR [rbp+0x18]
    57ec:	ba 05 00 00 00       	mov    edx,0x5
    57f1:	4c 89 e7             	mov    rdi,r12
    57f4:	4c 8b 75 10          	mov    r14,QWORD PTR [rbp+0x10]
    57f8:	48 8d 35 e9 1d 00 00 	lea    rsi,[rip+0x1de9]        # 75e8 <error_at_line@@Base+0x4fcd>
    57ff:	4c 8b 6d 08          	mov    r13,QWORD PTR [rbp+0x8]
    5803:	48 8b 6d 00          	mov    rbp,QWORD PTR [rbp+0x0]
    5807:	e8 d4 c8 ff ff       	call   20e0 <dcgettext@plt>
    580c:	48 83 ec 08          	sub    rsp,0x8
    5810:	4d 89 f1             	mov    r9,r14
    5813:	41 57                	push   r15
    5815:	48 89 c2             	mov    rdx,rax
    5818:	4d 89 e8             	mov    r8,r13
    581b:	48 89 e9             	mov    rcx,rbp
    581e:	48 89 df             	mov    rdi,rbx
    5821:	be 01 00 00 00       	mov    esi,0x1
    5826:	31 c0                	xor    eax,eax
    5828:	e8 73 ca ff ff       	call   22a0 <__fprintf_chk@plt>
    582d:	58                   	pop    rax
    582e:	5a                   	pop    rdx
    582f:	48 83 c4 38          	add    rsp,0x38
    5833:	5b                   	pop    rbx
    5834:	5d                   	pop    rbp
    5835:	41 5c                	pop    r12
    5837:	41 5d                	pop    r13
    5839:	41 5e                	pop    r14
    583b:	41 5f                	pop    r15
    583d:	c3                   	ret
    583e:	66 90                	xchg   ax,ax
    5840:	4c 8b 45 08          	mov    r8,QWORD PTR [rbp+0x8]
    5844:	4c 8b 6d 20          	mov    r13,QWORD PTR [rbp+0x20]
    5848:	ba 05 00 00 00       	mov    edx,0x5
    584d:	4c 89 e7             	mov    rdi,r12
    5850:	4c 8b 7d 18          	mov    r15,QWORD PTR [rbp+0x18]
    5854:	4c 8b 75 10          	mov    r14,QWORD PTR [rbp+0x10]
    5858:	48 8d 35 a9 1d 00 00 	lea    rsi,[rip+0x1da9]        # 7608 <error_at_line@@Base+0x4fed>
    585f:	4c 89 44 24 08       	mov    QWORD PTR [rsp+0x8],r8
    5864:	48 8b 6d 00          	mov    rbp,QWORD PTR [rbp+0x0]
    5868:	e8 73 c8 ff ff       	call   20e0 <dcgettext@plt>
    586d:	41 55                	push   r13
    586f:	4d 89 f1             	mov    r9,r14
    5872:	41 57                	push   r15
    5874:	48 89 c2             	mov    rdx,rax
    5877:	4c 8b 44 24 18       	mov    r8,QWORD PTR [rsp+0x18]
    587c:	eb 9d                	jmp    581b <error_at_line@@Base+0x3200>
    587e:	66 90                	xchg   ax,ax
    5880:	4c 8b 4d 10          	mov    r9,QWORD PTR [rbp+0x10]
    5884:	4c 8b 45 08          	mov    r8,QWORD PTR [rbp+0x8]
    5888:	ba 05 00 00 00       	mov    edx,0x5
    588d:	4c 89 e7             	mov    rdi,r12
    5890:	4c 8b 75 28          	mov    r14,QWORD PTR [rbp+0x28]
    5894:	4c 8b 6d 20          	mov    r13,QWORD PTR [rbp+0x20]
    5898:	48 8d 35 91 1d 00 00 	lea    rsi,[rip+0x1d91]        # 7630 <error_at_line@@Base+0x5015>
    589f:	4c 8b 7d 18          	mov    r15,QWORD PTR [rbp+0x18]
    58a3:	48 8b 6d 00          	mov    rbp,QWORD PTR [rbp+0x0]
    58a7:	4c 89 4c 24 10       	mov    QWORD PTR [rsp+0x10],r9
    58ac:	4c 89 44 24 08       	mov    QWORD PTR [rsp+0x8],r8
    58b1:	e8 2a c8 ff ff       	call   20e0 <dcgettext@plt>
    58b6:	48 83 ec 08          	sub    rsp,0x8
    58ba:	41 56                	push   r14
    58bc:	48 89 c2             	mov    rdx,rax
    58bf:	41 55                	push   r13
    58c1:	41 57                	push   r15
    58c3:	4c 8b 4c 24 30       	mov    r9,QWORD PTR [rsp+0x30]
    58c8:	4c 8b 44 24 28       	mov    r8,QWORD PTR [rsp+0x28]
    58cd:	48 89 e9             	mov    rcx,rbp
    58d0:	48 89 df             	mov    rdi,rbx
    58d3:	be 01 00 00 00       	mov    esi,0x1
    58d8:	31 c0                	xor    eax,eax
    58da:	e8 c1 c9 ff ff       	call   22a0 <__fprintf_chk@plt>
    58df:	48 83 c4 20          	add    rsp,0x20
    58e3:	48 83 c4 38          	add    rsp,0x38
    58e7:	5b                   	pop    rbx
    58e8:	5d                   	pop    rbp
    58e9:	41 5c                	pop    r12
    58eb:	41 5d                	pop    r13
    58ed:	41 5e                	pop    r14
    58ef:	41 5f                	pop    r15
    58f1:	c3                   	ret
    58f2:	66 0f 1f 44 00 00    	nop    WORD PTR [rax+rax*1+0x0]
    58f8:	4c 8b 4d 30          	mov    r9,QWORD PTR [rbp+0x30]
    58fc:	4c 8b 45 08          	mov    r8,QWORD PTR [rbp+0x8]
    5900:	ba 05 00 00 00       	mov    edx,0x5
    5905:	4c 89 e7             	mov    rdi,r12
    5908:	48 8b 45 10          	mov    rax,QWORD PTR [rbp+0x10]
    590c:	48 8d 35 45 1d 00 00 	lea    rsi,[rip+0x1d45]        # 7658 <error_at_line@@Base+0x503d>
    5913:	4c 8b 75 28          	mov    r14,QWORD PTR [rbp+0x28]
    5917:	4c 8b 6d 20          	mov    r13,QWORD PTR [rbp+0x20]
    591b:	4c 8b 7d 18          	mov    r15,QWORD PTR [rbp+0x18]
    591f:	4c 89 4c 24 18       	mov    QWORD PTR [rsp+0x18],r9
    5924:	4c 89 44 24 10       	mov    QWORD PTR [rsp+0x10],r8
    5929:	48 8b 6d 00          	mov    rbp,QWORD PTR [rbp+0x0]
    592d:	48 89 44 24 08       	mov    QWORD PTR [rsp+0x8],rax
    5932:	e8 a9 c7 ff ff       	call   20e0 <dcgettext@plt>
    5937:	4c 8b 4c 24 18       	mov    r9,QWORD PTR [rsp+0x18]
    593c:	48 89 c2             	mov    rdx,rax
    593f:	41 51                	push   r9
    5941:	41 56                	push   r14
    5943:	41 55                	push   r13
    5945:	41 57                	push   r15
    5947:	4c 8b 4c 24 28       	mov    r9,QWORD PTR [rsp+0x28]
    594c:	4c 8b 44 24 30       	mov    r8,QWORD PTR [rsp+0x30]
    5951:	e9 77 ff ff ff       	jmp    58cd <error_at_line@@Base+0x32b2>
    5956:	4c 8b 5d 40          	mov    r11,QWORD PTR [rbp+0x40]
    595a:	4c 8b 55 38          	mov    r10,QWORD PTR [rbp+0x38]
    595e:	ba 05 00 00 00       	mov    edx,0x5
    5963:	48 8d 35 86 1d 00 00 	lea    rsi,[rip+0x1d86]        # 76f0 <error_at_line@@Base+0x50d5>
    596a:	4c 8b 4d 30          	mov    r9,QWORD PTR [rbp+0x30]
    596e:	48 8b 45 10          	mov    rax,QWORD PTR [rbp+0x10]
    5972:	4c 8b 45 08          	mov    r8,QWORD PTR [rbp+0x8]
    5976:	4c 8b 75 28          	mov    r14,QWORD PTR [rbp+0x28]
    597a:	4c 89 5c 24 28       	mov    QWORD PTR [rsp+0x28],r11
    597f:	4c 8b 6d 20          	mov    r13,QWORD PTR [rbp+0x20]
    5983:	4c 8b 7d 18          	mov    r15,QWORD PTR [rbp+0x18]
    5987:	4c 89 54 24 20       	mov    QWORD PTR [rsp+0x20],r10
    598c:	4c 89 4c 24 18       	mov    QWORD PTR [rsp+0x18],r9
    5991:	48 8b 6d 00          	mov    rbp,QWORD PTR [rbp+0x0]
    5995:	48 89 44 24 08       	mov    QWORD PTR [rsp+0x8],rax
    599a:	4c 89 44 24 10       	mov    QWORD PTR [rsp+0x10],r8
    599f:	e9 55 fd ff ff       	jmp    56f9 <error_at_line@@Base+0x30de>
    59a4:	66 66 2e 0f 1f 84 00 	data16 cs nop WORD PTR [rax+rax*1+0x0]
    59ab:	00 00 00 00 
    59af:	90                   	nop
    59b0:	f3 0f 1e fa          	endbr64
    59b4:	45 31 c9             	xor    r9d,r9d
    59b7:	49 83 38 00          	cmp    QWORD PTR [r8],0x0
    59bb:	74 0e                	je     59cb <error_at_line@@Base+0x33b0>
    59bd:	0f 1f 00             	nop    DWORD PTR [rax]
    59c0:	49 83 c1 01          	add    r9,0x1
    59c4:	4b 83 3c c8 00       	cmp    QWORD PTR [r8+r9*8],0x0
    59c9:	75 f5                	jne    59c0 <error_at_line@@Base+0x33a5>
    59cb:	e9 10 fb ff ff       	jmp    54e0 <error_at_line@@Base+0x2ec5>
    59d0:	f3 0f 1e fa          	endbr64
    59d4:	48 83 ec 68          	sub    rsp,0x68
    59d8:	49 89 cb             	mov    r11,rcx
    59db:	49 89 d2             	mov    r10,rdx
    59de:	45 31 c9             	xor    r9d,r9d
    59e1:	64 48 8b 0c 25 28 00 	mov    rcx,QWORD PTR fs:0x28
    59e8:	00 00 
    59ea:	48 89 4c 24 58       	mov    QWORD PTR [rsp+0x58],rcx
    59ef:	4c 89 c1             	mov    rcx,r8
    59f2:	49 89 e0             	mov    r8,rsp
    59f5:	eb 2a                	jmp    5a21 <error_at_line@@Base+0x3406>
    59f7:	66 0f 1f 84 00 00 00 	nop    WORD PTR [rax+rax*1+0x0]
    59fe:	00 00 
    5a00:	89 c2                	mov    edx,eax
    5a02:	83 c0 08             	add    eax,0x8
    5a05:	48 03 51 10          	add    rdx,QWORD PTR [rcx+0x10]
    5a09:	89 01                	mov    DWORD PTR [rcx],eax
    5a0b:	48 8b 02             	mov    rax,QWORD PTR [rdx]
    5a0e:	4b 89 04 c8          	mov    QWORD PTR [r8+r9*8],rax
    5a12:	48 85 c0             	test   rax,rax
    5a15:	74 29                	je     5a40 <error_at_line@@Base+0x3425>
    5a17:	49 83 c1 01          	add    r9,0x1
    5a1b:	49 83 f9 0a          	cmp    r9,0xa
    5a1f:	74 1f                	je     5a40 <error_at_line@@Base+0x3425>
    5a21:	8b 01                	mov    eax,DWORD PTR [rcx]
    5a23:	83 f8 2f             	cmp    eax,0x2f
    5a26:	76 d8                	jbe    5a00 <error_at_line@@Base+0x33e5>
    5a28:	48 8b 51 08          	mov    rdx,QWORD PTR [rcx+0x8]
    5a2c:	48 8d 42 08          	lea    rax,[rdx+0x8]
    5a30:	48 89 41 08          	mov    QWORD PTR [rcx+0x8],rax
    5a34:	48 8b 02             	mov    rax,QWORD PTR [rdx]
    5a37:	4b 89 04 c8          	mov    QWORD PTR [r8+r9*8],rax
    5a3b:	48 85 c0             	test   rax,rax
    5a3e:	75 d7                	jne    5a17 <error_at_line@@Base+0x33fc>
    5a40:	4c 89 d9             	mov    rcx,r11
    5a43:	4c 89 d2             	mov    rdx,r10
    5a46:	e8 95 fa ff ff       	call   54e0 <error_at_line@@Base+0x2ec5>
    5a4b:	48 8b 44 24 58       	mov    rax,QWORD PTR [rsp+0x58]
    5a50:	64 48 2b 04 25 28 00 	sub    rax,QWORD PTR fs:0x28
    5a57:	00 00 
    5a59:	75 05                	jne    5a60 <error_at_line@@Base+0x3445>
    5a5b:	48 83 c4 68          	add    rsp,0x68
    5a5f:	c3                   	ret
    5a60:	e8 ab c6 ff ff       	call   2110 <__stack_chk_fail@plt>
    5a65:	66 66 2e 0f 1f 84 00 	data16 cs nop WORD PTR [rax+rax*1+0x0]
    5a6c:	00 00 00 00 
    5a70:	f3 0f 1e fa          	endbr64
    5a74:	53                   	push   rbx
    5a75:	49 89 f2             	mov    r10,rsi
    5a78:	49 89 d3             	mov    r11,rdx
    5a7b:	48 89 cb             	mov    rbx,rcx
    5a7e:	48 81 ec b0 00 00 00 	sub    rsp,0xb0
    5a85:	4c 89 84 24 a0 00 00 	mov    QWORD PTR [rsp+0xa0],r8
    5a8c:	00 
    5a8d:	48 8d b4 24 80 00 00 	lea    rsi,[rsp+0x80]
    5a94:	00 
    5a95:	48 8d 94 24 c0 00 00 	lea    rdx,[rsp+0xc0]
    5a9c:	00 
    5a9d:	4c 89 8c 24 a8 00 00 	mov    QWORD PTR [rsp+0xa8],r9
    5aa4:	00 
    5aa5:	4c 8d 44 24 20       	lea    r8,[rsp+0x20]
    5aaa:	45 31 c9             	xor    r9d,r9d
    5aad:	64 48 8b 04 25 28 00 	mov    rax,QWORD PTR fs:0x28
    5ab4:	00 00 
    5ab6:	48 89 44 24 78       	mov    QWORD PTR [rsp+0x78],rax
    5abb:	31 c0                	xor    eax,eax
    5abd:	48 89 74 24 18       	mov    QWORD PTR [rsp+0x18],rsi
    5ac2:	48 8d 84 24 c0 00 00 	lea    rax,[rsp+0xc0]
    5ac9:	00 
    5aca:	c7 44 24 08 20 00 00 	mov    DWORD PTR [rsp+0x8],0x20
    5ad1:	00 
    5ad2:	48 89 44 24 10       	mov    QWORD PTR [rsp+0x10],rax
    5ad7:	b8 20 00 00 00       	mov    eax,0x20
    5adc:	83 f8 2f             	cmp    eax,0x2f
    5adf:	77 5f                	ja     5b40 <error_at_line@@Base+0x3525>
    5ae1:	89 c1                	mov    ecx,eax
    5ae3:	83 c0 08             	add    eax,0x8
    5ae6:	48 8b 0c 0e          	mov    rcx,QWORD PTR [rsi+rcx*1]
    5aea:	4b 89 0c c8          	mov    QWORD PTR [r8+r9*8],rcx
    5aee:	48 85 c9             	test   rcx,rcx
    5af1:	74 10                	je     5b03 <error_at_line@@Base+0x34e8>
    5af3:	49 83 c1 01          	add    r9,0x1
    5af7:	49 83 f9 0a          	cmp    r9,0xa
    5afb:	75 df                	jne    5adc <error_at_line@@Base+0x34c1>
    5afd:	41 b9 0a 00 00 00    	mov    r9d,0xa
    5b03:	48 89 d9             	mov    rcx,rbx
    5b06:	4c 89 da             	mov    rdx,r11
    5b09:	4c 89 d6             	mov    rsi,r10
    5b0c:	e8 cf f9 ff ff       	call   54e0 <error_at_line@@Base+0x2ec5>
    5b11:	48 8b 44 24 78       	mov    rax,QWORD PTR [rsp+0x78]
    5b16:	64 48 2b 04 25 28 00 	sub    rax,QWORD PTR fs:0x28
    5b1d:	00 00 
    5b1f:	75 3e                	jne    5b5f <error_at_line@@Base+0x3544>
    5b21:	48 81 c4 b0 00 00 00 	add    rsp,0xb0
    5b28:	5b                   	pop    rbx
    5b29:	c3                   	ret
    5b2a:	66 66 2e 0f 1f 84 00 	data16 cs nop WORD PTR [rax+rax*1+0x0]
    5b31:	00 00 00 00 
    5b35:	66 66 2e 0f 1f 84 00 	data16 cs nop WORD PTR [rax+rax*1+0x0]
    5b3c:	00 00 00 00 
    5b40:	48 89 d0             	mov    rax,rdx
    5b43:	48 83 c2 08          	add    rdx,0x8
    5b47:	48 8b 00             	mov    rax,QWORD PTR [rax]
    5b4a:	4b 89 04 c8          	mov    QWORD PTR [r8+r9*8],rax
    5b4e:	48 85 c0             	test   rax,rax
    5b51:	74 b0                	je     5b03 <error_at_line@@Base+0x34e8>
    5b53:	49 83 c1 01          	add    r9,0x1
    5b57:	49 83 f9 0a          	cmp    r9,0xa
    5b5b:	75 e3                	jne    5b40 <error_at_line@@Base+0x3525>
    5b5d:	eb 9e                	jmp    5afd <error_at_line@@Base+0x34e2>
    5b5f:	e8 ac c5 ff ff       	call   2110 <__stack_chk_fail@plt>
    5b64:	66 66 2e 0f 1f 84 00 	data16 cs nop WORD PTR [rax+rax*1+0x0]
    5b6b:	00 00 00 00 
    5b6f:	90                   	nop
    5b70:	f3 0f 1e fa          	endbr64
    5b74:	53                   	push   rbx
    5b75:	48 8b 35 0c 45 00 00 	mov    rsi,QWORD PTR [rip+0x450c]        # a088 <stdout@GLIBC_2.2.5>
    5b7c:	48 8d 1d 6a 15 00 00 	lea    rbx,[rip+0x156a]        # 70ed <error_at_line@@Base+0x4ad2>
    5b83:	bf 0a 00 00 00       	mov    edi,0xa
    5b88:	e8 23 c6 ff ff       	call   21b0 <fputc_unlocked@plt>
    5b8d:	48 89 df             	mov    rdi,rbx
    5b90:	ba 05 00 00 00       	mov    edx,0x5
    5b95:	48 8d 35 72 16 00 00 	lea    rsi,[rip+0x1672]        # 720e <error_at_line@@Base+0x4bf3>
    5b9c:	e8 3f c5 ff ff       	call   20e0 <dcgettext@plt>
    5ba1:	48 8d 15 7a 16 00 00 	lea    rdx,[rip+0x167a]        # 7222 <error_at_line@@Base+0x4c07>
    5ba8:	bf 01 00 00 00       	mov    edi,0x1
    5bad:	48 89 c6             	mov    rsi,rax
    5bb0:	31 c0                	xor    eax,eax
    5bb2:	e8 99 c6 ff ff       	call   2250 <__printf_chk@plt>
    5bb7:	48 89 df             	mov    rdi,rbx
    5bba:	ba 05 00 00 00       	mov    edx,0x5
    5bbf:	48 8d 35 72 16 00 00 	lea    rsi,[rip+0x1672]        # 7238 <error_at_line@@Base+0x4c1d>
    5bc6:	e8 15 c5 ff ff       	call   20e0 <dcgettext@plt>
    5bcb:	48 8d 0d 5e 18 00 00 	lea    rcx,[rip+0x185e]        # 7430 <error_at_line@@Base+0x4e15>
    5bd2:	bf 01 00 00 00       	mov    edi,0x1
    5bd7:	48 8d 15 a6 14 00 00 	lea    rdx,[rip+0x14a6]        # 7084 <error_at_line@@Base+0x4a69>
    5bde:	48 89 c6             	mov    rsi,rax
    5be1:	31 c0                	xor    eax,eax
    5be3:	e8 68 c6 ff ff       	call   2250 <__printf_chk@plt>
    5be8:	48 89 df             	mov    rdi,rbx
    5beb:	ba 05 00 00 00       	mov    edx,0x5
    5bf0:	48 8d 35 39 1b 00 00 	lea    rsi,[rip+0x1b39]        # 7730 <error_at_line@@Base+0x5115>
    5bf7:	e8 e4 c4 ff ff       	call   20e0 <dcgettext@plt>
    5bfc:	48 8d 15 49 16 00 00 	lea    rdx,[rip+0x1649]        # 724c <error_at_line@@Base+0x4c31>
    5c03:	bf 01 00 00 00       	mov    edi,0x1
    5c08:	5b                   	pop    rbx
    5c09:	48 89 c6             	mov    rsi,rax
    5c0c:	31 c0                	xor    eax,eax
    5c0e:	e9 3d c6 ff ff       	jmp    2250 <__printf_chk@plt>
    5c13:	66 2e 0f 1f 84 00 00 	cs nop WORD PTR [rax+rax*1+0x0]
    5c1a:	00 00 00 
    5c1d:	0f 1f 00             	nop    DWORD PTR [rax]
    5c20:	f3 0f 1e fa          	endbr64
    5c24:	48 83 ec 08          	sub    rsp,0x8
    5c28:	e8 33 08 00 00       	call   6460 <error_at_line@@Base+0x3e45>
    5c2d:	48 85 c0             	test   rax,rax
    5c30:	74 05                	je     5c37 <error_at_line@@Base+0x361c>
    5c32:	48 83 c4 08          	add    rsp,0x8
    5c36:	c3                   	ret
    5c37:	e8 c4 04 00 00       	call   6100 <error_at_line@@Base+0x3ae5>
    5c3c:	0f 1f 40 00          	nop    DWORD PTR [rax+0x0]
    5c40:	f3 0f 1e fa          	endbr64
    5c44:	48 83 ec 08          	sub    rsp,0x8
    5c48:	e8 a3 c5 ff ff       	call   21f0 <malloc@plt>
    5c4d:	48 85 c0             	test   rax,rax
    5c50:	74 05                	je     5c57 <error_at_line@@Base+0x363c>
    5c52:	48 83 c4 08          	add    rsp,0x8
    5c56:	c3                   	ret
    5c57:	e8 a4 04 00 00       	call   6100 <error_at_line@@Base+0x3ae5>
    5c5c:	0f 1f 40 00          	nop    DWORD PTR [rax+0x0]
    5c60:	f3 0f 1e fa          	endbr64
    5c64:	48 83 ec 08          	sub    rsp,0x8
    5c68:	e8 83 c5 ff ff       	call   21f0 <malloc@plt>
    5c6d:	48 85 c0             	test   rax,rax
    5c70:	74 05                	je     5c77 <error_at_line@@Base+0x365c>
    5c72:	48 83 c4 08          	add    rsp,0x8
    5c76:	c3                   	ret
    5c77:	e8 84 04 00 00       	call   6100 <error_at_line@@Base+0x3ae5>
    5c7c:	0f 1f 40 00          	nop    DWORD PTR [rax+0x0]
    5c80:	f3 0f 1e fa          	endbr64
    5c84:	48 83 ec 08          	sub    rsp,0x8
    5c88:	e8 63 c5 ff ff       	call   21f0 <malloc@plt>
    5c8d:	48 85 c0             	test   rax,rax
    5c90:	74 05                	je     5c97 <error_at_line@@Base+0x367c>
    5c92:	48 83 c4 08          	add    rsp,0x8
    5c96:	c3                   	ret
    5c97:	e8 64 04 00 00       	call   6100 <error_at_line@@Base+0x3ae5>
    5c9c:	0f 1f 40 00          	nop    DWORD PTR [rax+0x0]
    5ca0:	f3 0f 1e fa          	endbr64
    5ca4:	48 83 ec 08          	sub    rsp,0x8
    5ca8:	b8 01 00 00 00       	mov    eax,0x1
    5cad:	48 85 f6             	test   rsi,rsi
    5cb0:	48 0f 44 f0          	cmove  rsi,rax
    5cb4:	e8 77 c5 ff ff       	call   2230 <realloc@plt>
    5cb9:	48 85 c0             	test   rax,rax
    5cbc:	74 05                	je     5cc3 <error_at_line@@Base+0x36a8>
    5cbe:	48 83 c4 08          	add    rsp,0x8
    5cc2:	c3                   	ret
    5cc3:	e8 38 04 00 00       	call   6100 <error_at_line@@Base+0x3ae5>
    5cc8:	0f 1f 84 00 00 00 00 	nop    DWORD PTR [rax+rax*1+0x0]
    5ccf:	00 
    5cd0:	f3 0f 1e fa          	endbr64
    5cd4:	48 83 ec 08          	sub    rsp,0x8
    5cd8:	b8 01 00 00 00       	mov    eax,0x1
    5cdd:	48 85 f6             	test   rsi,rsi
    5ce0:	48 0f 44 f0          	cmove  rsi,rax
    5ce4:	e8 47 c5 ff ff       	call   2230 <realloc@plt>
    5ce9:	48 85 c0             	test   rax,rax
    5cec:	74 05                	je     5cf3 <error_at_line@@Base+0x36d8>
    5cee:	48 83 c4 08          	add    rsp,0x8
    5cf2:	c3                   	ret
    5cf3:	e8 08 04 00 00       	call   6100 <error_at_line@@Base+0x3ae5>
    5cf8:	0f 1f 84 00 00 00 00 	nop    DWORD PTR [rax+rax*1+0x0]
    5cff:	00 
    5d00:	f3 0f 1e fa          	endbr64
    5d04:	48 83 ec 08          	sub    rsp,0x8
    5d08:	e8 53 07 00 00       	call   6460 <error_at_line@@Base+0x3e45>
    5d0d:	48 85 c0             	test   rax,rax
    5d10:	74 05                	je     5d17 <error_at_line@@Base+0x36fc>
    5d12:	48 83 c4 08          	add    rsp,0x8
    5d16:	c3                   	ret
    5d17:	e8 e4 03 00 00       	call   6100 <error_at_line@@Base+0x3ae5>
    5d1c:	0f 1f 40 00          	nop    DWORD PTR [rax+0x0]
    5d20:	f3 0f 1e fa          	endbr64
    5d24:	48 83 ec 08          	sub    rsp,0x8
    5d28:	e8 33 07 00 00       	call   6460 <error_at_line@@Base+0x3e45>
    5d2d:	48 85 c0             	test   rax,rax
    5d30:	74 05                	je     5d37 <error_at_line@@Base+0x371c>
    5d32:	48 83 c4 08          	add    rsp,0x8
    5d36:	c3                   	ret
    5d37:	e8 c4 03 00 00       	call   6100 <error_at_line@@Base+0x3ae5>
    5d3c:	0f 1f 40 00          	nop    DWORD PTR [rax+0x0]
    5d40:	f3 0f 1e fa          	endbr64
    5d44:	48 83 ec 08          	sub    rsp,0x8
    5d48:	48 89 f2             	mov    rdx,rsi
    5d4b:	48 89 fe             	mov    rsi,rdi
    5d4e:	31 ff                	xor    edi,edi
    5d50:	e8 0b 07 00 00       	call   6460 <error_at_line@@Base+0x3e45>
    5d55:	48 85 c0             	test   rax,rax
    5d58:	74 05                	je     5d5f <error_at_line@@Base+0x3744>
    5d5a:	48 83 c4 08          	add    rsp,0x8
    5d5e:	c3                   	ret
    5d5f:	e8 9c 03 00 00       	call   6100 <error_at_line@@Base+0x3ae5>
    5d64:	66 66 2e 0f 1f 84 00 	data16 cs nop WORD PTR [rax+rax*1+0x0]
    5d6b:	00 00 00 00 
    5d6f:	90                   	nop
    5d70:	f3 0f 1e fa          	endbr64
    5d74:	48 83 ec 08          	sub    rsp,0x8
    5d78:	48 89 f2             	mov    rdx,rsi
    5d7b:	48 89 fe             	mov    rsi,rdi
    5d7e:	31 ff                	xor    edi,edi
    5d80:	e8 db 06 00 00       	call   6460 <error_at_line@@Base+0x3e45>
    5d85:	48 85 c0             	test   rax,rax
    5d88:	74 05                	je     5d8f <error_at_line@@Base+0x3774>
    5d8a:	48 83 c4 08          	add    rsp,0x8
    5d8e:	c3                   	ret
    5d8f:	e8 6c 03 00 00       	call   6100 <error_at_line@@Base+0x3ae5>
    5d94:	66 66 2e 0f 1f 84 00 	data16 cs nop WORD PTR [rax+rax*1+0x0]
    5d9b:	00 00 00 00 
    5d9f:	90                   	nop
    5da0:	f3 0f 1e fa          	endbr64
    5da4:	55                   	push   rbp
    5da5:	48 89 f5             	mov    rbp,rsi
    5da8:	53                   	push   rbx
    5da9:	48 83 ec 08          	sub    rsp,0x8
    5dad:	48 8b 1e             	mov    rbx,QWORD PTR [rsi]
    5db0:	48 85 ff             	test   rdi,rdi
    5db3:	74 33                	je     5de8 <error_at_line@@Base+0x37cd>
    5db5:	48 89 d8             	mov    rax,rbx
    5db8:	48 d1 e8             	shr    rax,1
    5dbb:	48 83 c0 01          	add    rax,0x1
    5dbf:	48 01 c3             	add    rbx,rax
    5dc2:	72 32                	jb     5df6 <error_at_line@@Base+0x37db>
    5dc4:	ba 01 00 00 00       	mov    edx,0x1
    5dc9:	48 89 de             	mov    rsi,rbx
    5dcc:	e8 8f 06 00 00       	call   6460 <error_at_line@@Base+0x3e45>
    5dd1:	48 85 c0             	test   rax,rax
    5dd4:	74 20                	je     5df6 <error_at_line@@Base+0x37db>
    5dd6:	48 89 5d 00          	mov    QWORD PTR [rbp+0x0],rbx
    5dda:	48 83 c4 08          	add    rsp,0x8
    5dde:	5b                   	pop    rbx
    5ddf:	5d                   	pop    rbp
    5de0:	c3                   	ret
    5de1:	0f 1f 80 00 00 00 00 	nop    DWORD PTR [rax+0x0]
    5de8:	48 85 db             	test   rbx,rbx
    5deb:	b8 80 00 00 00       	mov    eax,0x80
    5df0:	48 0f 44 d8          	cmove  rbx,rax
    5df4:	eb ce                	jmp    5dc4 <error_at_line@@Base+0x37a9>
    5df6:	e8 05 03 00 00       	call   6100 <error_at_line@@Base+0x3ae5>
    5dfb:	0f 1f 44 00 00       	nop    DWORD PTR [rax+rax*1+0x0]
    5e00:	f3 0f 1e fa          	endbr64
    5e04:	55                   	push   rbp
    5e05:	48 89 d1             	mov    rcx,rdx
    5e08:	48 89 f5             	mov    rbp,rsi
    5e0b:	53                   	push   rbx
    5e0c:	48 83 ec 08          	sub    rsp,0x8
    5e10:	48 8b 1e             	mov    rbx,QWORD PTR [rsi]
    5e13:	48 85 ff             	test   rdi,rdi
    5e16:	74 30                	je     5e48 <error_at_line@@Base+0x382d>
    5e18:	48 89 d8             	mov    rax,rbx
    5e1b:	48 d1 e8             	shr    rax,1
    5e1e:	48 83 c0 01          	add    rax,0x1
    5e22:	48 01 c3             	add    rbx,rax
    5e25:	72 42                	jb     5e69 <error_at_line@@Base+0x384e>
    5e27:	48 89 ca             	mov    rdx,rcx
    5e2a:	48 89 de             	mov    rsi,rbx
    5e2d:	e8 2e 06 00 00       	call   6460 <error_at_line@@Base+0x3e45>
    5e32:	48 85 c0             	test   rax,rax
    5e35:	74 32                	je     5e69 <error_at_line@@Base+0x384e>
    5e37:	48 89 5d 00          	mov    QWORD PTR [rbp+0x0],rbx
    5e3b:	48 83 c4 08          	add    rsp,0x8
    5e3f:	5b                   	pop    rbx
    5e40:	5d                   	pop    rbp
    5e41:	c3                   	ret
    5e42:	66 0f 1f 44 00 00    	nop    WORD PTR [rax+rax*1+0x0]
    5e48:	48 85 db             	test   rbx,rbx
    5e4b:	75 da                	jne    5e27 <error_at_line@@Base+0x380c>
    5e4d:	31 d2                	xor    edx,edx
    5e4f:	b8 80 00 00 00       	mov    eax,0x80
    5e54:	48 f7 f1             	div    rcx
    5e57:	31 d2                	xor    edx,edx
    5e59:	48 81 f9 80 00 00 00 	cmp    rcx,0x80
    5e60:	0f 97 c2             	seta   dl
    5e63:	48 8d 1c 10          	lea    rbx,[rax+rdx*1]
    5e67:	eb be                	jmp    5e27 <error_at_line@@Base+0x380c>
    5e69:	e8 92 02 00 00       	call   6100 <error_at_line@@Base+0x3ae5>
    5e6e:	66 90                	xchg   ax,ax
    5e70:	f3 0f 1e fa          	endbr64
    5e74:	55                   	push   rbp
    5e75:	49 89 c9             	mov    r9,rcx
    5e78:	48 89 f5             	mov    rbp,rsi
    5e7b:	49 89 d2             	mov    r10,rdx
    5e7e:	53                   	push   rbx
    5e7f:	48 83 ec 08          	sub    rsp,0x8
    5e83:	48 8b 0e             	mov    rcx,QWORD PTR [rsi]
    5e86:	48 89 cb             	mov    rbx,rcx
    5e89:	48 d1 fb             	sar    rbx,1
    5e8c:	48 01 cb             	add    rbx,rcx
    5e8f:	0f 80 b1 00 00 00    	jo     5f46 <error_at_line@@Base+0x392b>
    5e95:	4c 39 cb             	cmp    rbx,r9
    5e98:	4c 89 c8             	mov    rax,r9
    5e9b:	48 0f 4e c3          	cmovle rax,rbx
    5e9f:	4d 85 c9             	test   r9,r9
    5ea2:	48 0f 49 d8          	cmovns rbx,rax
    5ea6:	48 89 d8             	mov    rax,rbx
    5ea9:	49 0f af c0          	imul   rax,r8
    5ead:	0f 80 87 00 00 00    	jo     5f3a <error_at_line@@Base+0x391f>
    5eb3:	48 83 f8 7f          	cmp    rax,0x7f
    5eb7:	7e 57                	jle    5f10 <error_at_line@@Base+0x38f5>
    5eb9:	48 85 ff             	test   rdi,rdi
    5ebc:	74 6d                	je     5f2b <error_at_line@@Base+0x3910>
    5ebe:	66 90                	xchg   ax,ax
    5ec0:	48 89 da             	mov    rdx,rbx
    5ec3:	48 29 ca             	sub    rdx,rcx
    5ec6:	4c 39 d2             	cmp    rdx,r10
    5ec9:	7d 1b                	jge    5ee6 <error_at_line@@Base+0x38cb>
    5ecb:	4c 01 d1             	add    rcx,r10
    5ece:	48 89 cb             	mov    rbx,rcx
    5ed1:	70 62                	jo     5f35 <error_at_line@@Base+0x391a>
    5ed3:	4d 85 c9             	test   r9,r9
    5ed6:	78 05                	js     5edd <error_at_line@@Base+0x38c2>
    5ed8:	4c 39 c9             	cmp    rcx,r9
    5edb:	7f 58                	jg     5f35 <error_at_line@@Base+0x391a>
    5edd:	49 0f af c8          	imul   rcx,r8
    5ee1:	48 89 c8             	mov    rax,rcx
    5ee4:	70 4f                	jo     5f35 <error_at_line@@Base+0x391a>
    5ee6:	48 85 c0             	test   rax,rax
    5ee9:	be 01 00 00 00       	mov    esi,0x1
    5eee:	48 0f 45 f0          	cmovne rsi,rax
    5ef2:	e8 39 c3 ff ff       	call   2230 <realloc@plt>
    5ef7:	48 85 c0             	test   rax,rax
    5efa:	74 39                	je     5f35 <error_at_line@@Base+0x391a>
    5efc:	48 89 5d 00          	mov    QWORD PTR [rbp+0x0],rbx
    5f00:	48 83 c4 08          	add    rsp,0x8
    5f04:	5b                   	pop    rbx
    5f05:	5d                   	pop    rbp
    5f06:	c3                   	ret
    5f07:	66 0f 1f 84 00 00 00 	nop    WORD PTR [rax+rax*1+0x0]
    5f0e:	00 00 
    5f10:	be 80 00 00 00       	mov    esi,0x80
    5f15:	48 89 f0             	mov    rax,rsi
    5f18:	48 99                	cqo
    5f1a:	49 f7 f8             	idiv   r8
    5f1d:	48 89 c3             	mov    rbx,rax
    5f20:	48 89 f0             	mov    rax,rsi
    5f23:	48 29 d0             	sub    rax,rdx
    5f26:	48 85 ff             	test   rdi,rdi
    5f29:	75 95                	jne    5ec0 <error_at_line@@Base+0x38a5>
    5f2b:	48 c7 45 00 00 00 00 	mov    QWORD PTR [rbp+0x0],0x0
    5f32:	00 
    5f33:	eb 8b                	jmp    5ec0 <error_at_line@@Base+0x38a5>
    5f35:	e8 c6 01 00 00       	call   6100 <error_at_line@@Base+0x3ae5>
    5f3a:	48 be ff ff ff ff ff 	movabs rsi,0x7fffffffffffffff
    5f41:	ff ff 7f 
    5f44:	eb cf                	jmp    5f15 <error_at_line@@Base+0x38fa>
    5f46:	48 bb ff ff ff ff ff 	movabs rbx,0x7fffffffffffffff
    5f4d:	ff ff 7f 
    5f50:	e9 40 ff ff ff       	jmp    5e95 <error_at_line@@Base+0x387a>
    5f55:	66 66 2e 0f 1f 84 00 	data16 cs nop WORD PTR [rax+rax*1+0x0]
    5f5c:	00 00 00 00 
    5f60:	f3 0f 1e fa          	endbr64
    5f64:	48 83 ec 08          	sub    rsp,0x8
    5f68:	be 01 00 00 00       	mov    esi,0x1
    5f6d:	e8 1e c2 ff ff       	call   2190 <calloc@plt>
    5f72:	48 85 c0             	test   rax,rax
    5f75:	74 05                	je     5f7c <error_at_line@@Base+0x3961>
    5f77:	48 83 c4 08          	add    rsp,0x8
    5f7b:	c3                   	ret
    5f7c:	e8 7f 01 00 00       	call   6100 <error_at_line@@Base+0x3ae5>
    5f81:	66 66 2e 0f 1f 84 00 	data16 cs nop WORD PTR [rax+rax*1+0x0]
    5f88:	00 00 00 00 
    5f8c:	0f 1f 40 00          	nop    DWORD PTR [rax+0x0]
    5f90:	f3 0f 1e fa          	endbr64
    5f94:	48 83 ec 08          	sub    rsp,0x8
    5f98:	be 01 00 00 00       	mov    esi,0x1
    5f9d:	e8 ee c1 ff ff       	call   2190 <calloc@plt>
    5fa2:	48 85 c0             	test   rax,rax
    5fa5:	74 05                	je     5fac <error_at_line@@Base+0x3991>
    5fa7:	48 83 c4 08          	add    rsp,0x8
    5fab:	c3                   	ret
    5fac:	e8 4f 01 00 00       	call   6100 <error_at_line@@Base+0x3ae5>
    5fb1:	66 66 2e 0f 1f 84 00 	data16 cs nop WORD PTR [rax+rax*1+0x0]
    5fb8:	00 00 00 00 
    5fbc:	0f 1f 40 00          	nop    DWORD PTR [rax+0x0]
    5fc0:	f3 0f 1e fa          	endbr64
    5fc4:	48 83 ec 08          	sub    rsp,0x8
    5fc8:	e8 c3 c1 ff ff       	call   2190 <calloc@plt>
    5fcd:	48 85 c0             	test   rax,rax
    5fd0:	74 05                	je     5fd7 <error_at_line@@Base+0x39bc>
    5fd2:	48 83 c4 08          	add    rsp,0x8
    5fd6:	c3                   	ret
    5fd7:	e8 24 01 00 00       	call   6100 <error_at_line@@Base+0x3ae5>
    5fdc:	0f 1f 40 00          	nop    DWORD PTR [rax+0x0]
    5fe0:	f3 0f 1e fa          	endbr64
    5fe4:	48 83 ec 08          	sub    rsp,0x8
    5fe8:	e8 a3 c1 ff ff       	call   2190 <calloc@plt>
    5fed:	48 85 c0             	test   rax,rax
    5ff0:	74 05                	je     5ff7 <error_at_line@@Base+0x39dc>
    5ff2:	48 83 c4 08          	add    rsp,0x8
    5ff6:	c3                   	ret
    5ff7:	e8 04 01 00 00       	call   6100 <error_at_line@@Base+0x3ae5>
    5ffc:	0f 1f 40 00          	nop    DWORD PTR [rax+0x0]
    6000:	f3 0f 1e fa          	endbr64
    6004:	55                   	push   rbp
    6005:	48 89 fd             	mov    rbp,rdi
    6008:	48 89 f7             	mov    rdi,rsi
    600b:	53                   	push   rbx
    600c:	48 89 f3             	mov    rbx,rsi
    600f:	48 83 ec 08          	sub    rsp,0x8
    6013:	e8 d8 c1 ff ff       	call   21f0 <malloc@plt>
    6018:	48 85 c0             	test   rax,rax
    601b:	74 14                	je     6031 <error_at_line@@Base+0x3a16>
    601d:	48 83 c4 08          	add    rsp,0x8
    6021:	48 89 da             	mov    rdx,rbx
    6024:	48 89 ee             	mov    rsi,rbp
    6027:	48 89 c7             	mov    rdi,rax
    602a:	5b                   	pop    rbx
    602b:	5d                   	pop    rbp
    602c:	e9 8f c1 ff ff       	jmp    21c0 <memcpy@plt>
    6031:	e8 ca 00 00 00       	call   6100 <error_at_line@@Base+0x3ae5>
    6036:	66 2e 0f 1f 84 00 00 	cs nop WORD PTR [rax+rax*1+0x0]
    603d:	00 00 00 
    6040:	f3 0f 1e fa          	endbr64
    6044:	55                   	push   rbp
    6045:	48 89 fd             	mov    rbp,rdi
    6048:	48 89 f7             	mov    rdi,rsi
    604b:	53                   	push   rbx
    604c:	48 89 f3             	mov    rbx,rsi
    604f:	48 83 ec 08          	sub    rsp,0x8
    6053:	e8 98 c1 ff ff       	call   21f0 <malloc@plt>
    6058:	48 85 c0             	test   rax,rax
    605b:	74 14                	je     6071 <error_at_line@@Base+0x3a56>
    605d:	48 83 c4 08          	add    rsp,0x8
    6061:	48 89 da             	mov    rdx,rbx
    6064:	48 89 ee             	mov    rsi,rbp
    6067:	48 89 c7             	mov    rdi,rax
    606a:	5b                   	pop    rbx
    606b:	5d                   	pop    rbp
    606c:	e9 4f c1 ff ff       	jmp    21c0 <memcpy@plt>
    6071:	e8 8a 00 00 00       	call   6100 <error_at_line@@Base+0x3ae5>
    6076:	66 2e 0f 1f 84 00 00 	cs nop WORD PTR [rax+rax*1+0x0]
    607d:	00 00 00 
    6080:	f3 0f 1e fa          	endbr64
    6084:	55                   	push   rbp
    6085:	48 89 fd             	mov    rbp,rdi
    6088:	48 8d 7e 01          	lea    rdi,[rsi+0x1]
    608c:	53                   	push   rbx
    608d:	48 89 f3             	mov    rbx,rsi
    6090:	48 83 ec 08          	sub    rsp,0x8
    6094:	e8 57 c1 ff ff       	call   21f0 <malloc@plt>
    6099:	48 85 c0             	test   rax,rax
    609c:	74 18                	je     60b6 <error_at_line@@Base+0x3a9b>
    609e:	c6 04 18 00          	mov    BYTE PTR [rax+rbx*1],0x0
    60a2:	48 83 c4 08          	add    rsp,0x8
    60a6:	48 89 da             	mov    rdx,rbx
    60a9:	48 89 ee             	mov    rsi,rbp
    60ac:	5b                   	pop    rbx
    60ad:	48 89 c7             	mov    rdi,rax
    60b0:	5d                   	pop    rbp
    60b1:	e9 0a c1 ff ff       	jmp    21c0 <memcpy@plt>
    60b6:	e8 45 00 00 00       	call   6100 <error_at_line@@Base+0x3ae5>
    60bb:	0f 1f 44 00 00       	nop    DWORD PTR [rax+rax*1+0x0]
    60c0:	f3 0f 1e fa          	endbr64
    60c4:	55                   	push   rbp
    60c5:	53                   	push   rbx
    60c6:	48 89 fb             	mov    rbx,rdi
    60c9:	48 83 ec 08          	sub    rsp,0x8
    60cd:	e8 2e c0 ff ff       	call   2100 <strlen@plt>
    60d2:	48 8d 68 01          	lea    rbp,[rax+0x1]
    60d6:	48 89 ef             	mov    rdi,rbp
    60d9:	e8 12 c1 ff ff       	call   21f0 <malloc@plt>
    60de:	48 85 c0             	test   rax,rax
    60e1:	74 14                	je     60f7 <error_at_line@@Base+0x3adc>
    60e3:	48 83 c4 08          	add    rsp,0x8
    60e7:	48 89 ea             	mov    rdx,rbp
    60ea:	48 89 de             	mov    rsi,rbx
    60ed:	48 89 c7             	mov    rdi,rax
    60f0:	5b                   	pop    rbx
    60f1:	5d                   	pop    rbp
    60f2:	e9 c9 c0 ff ff       	jmp    21c0 <memcpy@plt>
    60f7:	e8 04 00 00 00       	call   6100 <error_at_line@@Base+0x3ae5>
    60fc:	0f 1f 40 00          	nop    DWORD PTR [rax+0x0]
    6100:	f3 0f 1e fa          	endbr64
    6104:	53                   	push   rbx
    6105:	ba 05 00 00 00       	mov    edx,0x5
    610a:	8b 1d 08 3f 00 00    	mov    ebx,DWORD PTR [rip+0x3f08]        # a018 <error_at_line@@Base+0x79fd>
    6110:	48 8d 35 52 11 00 00 	lea    rsi,[rip+0x1152]        # 7269 <error_at_line@@Base+0x4c4e>
    6117:	48 8d 3d cf 0f 00 00 	lea    rdi,[rip+0xfcf]        # 70ed <error_at_line@@Base+0x4ad2>
    611e:	e8 bd bf ff ff       	call   20e0 <dcgettext@plt>
    6123:	48 8d 15 ce 0f 00 00 	lea    rdx,[rip+0xfce]        # 70f8 <error_at_line@@Base+0x4add>
    612a:	31 f6                	xor    esi,esi
    612c:	89 df                	mov    edi,ebx
    612e:	48 89 c1             	mov    rcx,rax
    6131:	31 c0                	xor    eax,eax
    6133:	e8 3e c3 ff ff       	call   2476 <error@@Base>
    6138:	e8 13 bf ff ff       	call   2050 <abort@plt>
    613d:	0f 1f 00             	nop    DWORD PTR [rax]
    6140:	f3 0f 1e fa          	endbr64
    6144:	31 c0                	xor    eax,eax
    6146:	48 39 f7             	cmp    rdi,rsi
    6149:	74 53                	je     619e <error_at_line@@Base+0x3b83>
    614b:	31 d2                	xor    edx,edx
    614d:	eb 1e                	jmp    616d <error_at_line@@Base+0x3b52>
    614f:	90                   	nop
    6150:	83 c0 20             	add    eax,0x20
    6153:	41 83 c0 20          	add    r8d,0x20
    6157:	41 83 fa 19          	cmp    r10d,0x19
    615b:	77 07                	ja     6164 <error_at_line@@Base+0x3b49>
    615d:	41 83 c1 20          	add    r9d,0x20
    6161:	83 c1 20             	add    ecx,0x20
    6164:	48 83 c2 01          	add    rdx,0x1
    6168:	41 38 c8             	cmp    r8b,cl
    616b:	75 2e                	jne    619b <error_at_line@@Base+0x3b80>
    616d:	0f b6 04 17          	movzx  eax,BYTE PTR [rdi+rdx*1]
    6171:	44 0f b6 0c 16       	movzx  r9d,BYTE PTR [rsi+rdx*1]
    6176:	44 8d 58 bf          	lea    r11d,[rax-0x41]
    617a:	41 89 c0             	mov    r8d,eax
    617d:	45 8d 51 bf          	lea    r10d,[r9-0x41]
    6181:	44 89 c9             	mov    ecx,r9d
    6184:	41 83 fb 19          	cmp    r11d,0x19
    6188:	76 c6                	jbe    6150 <error_at_line@@Base+0x3b35>
    618a:	41 83 fa 19          	cmp    r10d,0x19
    618e:	77 07                	ja     6197 <error_at_line@@Base+0x3b7c>
    6190:	41 83 c1 20          	add    r9d,0x20
    6194:	83 c1 20             	add    ecx,0x20
    6197:	85 c0                	test   eax,eax
    6199:	75 c9                	jne    6164 <error_at_line@@Base+0x3b49>
    619b:	44 29 c8             	sub    eax,r9d
    619e:	c3                   	ret
    619f:	90                   	nop
    61a0:	f3 0f 1e fa          	endbr64
    61a4:	41 54                	push   r12
    61a6:	55                   	push   rbp
    61a7:	53                   	push   rbx
    61a8:	48 89 fb             	mov    rbx,rdi
    61ab:	e8 e0 be ff ff       	call   2090 <__fpending@plt>
    61b0:	8b 2b                	mov    ebp,DWORD PTR [rbx]
    61b2:	48 89 df             	mov    rdi,rbx
    61b5:	49 89 c4             	mov    r12,rax
    61b8:	83 e5 20             	and    ebp,0x20
    61bb:	e8 40 00 00 00       	call   6200 <error_at_line@@Base+0x3be5>
    61c0:	85 ed                	test   ebp,ebp
    61c2:	75 24                	jne    61e8 <error_at_line@@Base+0x3bcd>
    61c4:	85 c0                	test   eax,eax
    61c6:	74 15                	je     61dd <error_at_line@@Base+0x3bc2>
    61c8:	4d 85 e4             	test   r12,r12
    61cb:	75 2a                	jne    61f7 <error_at_line@@Base+0x3bdc>
    61cd:	e8 8e be ff ff       	call   2060 <__errno_location@plt>
    61d2:	83 38 09             	cmp    DWORD PTR [rax],0x9
    61d5:	0f 95 c0             	setne  al
    61d8:	0f b6 c0             	movzx  eax,al
    61db:	f7 d8                	neg    eax
    61dd:	5b                   	pop    rbx
    61de:	5d                   	pop    rbp
    61df:	41 5c                	pop    r12
    61e1:	c3                   	ret
    61e2:	66 0f 1f 44 00 00    	nop    WORD PTR [rax+rax*1+0x0]
    61e8:	85 c0                	test   eax,eax
    61ea:	75 0b                	jne    61f7 <error_at_line@@Base+0x3bdc>
    61ec:	e8 6f be ff ff       	call   2060 <__errno_location@plt>
    61f1:	c7 00 00 00 00 00    	mov    DWORD PTR [rax],0x0
    61f7:	b8 ff ff ff ff       	mov    eax,0xffffffff
    61fc:	eb df                	jmp    61dd <error_at_line@@Base+0x3bc2>
    61fe:	66 90                	xchg   ax,ax
    6200:	f3 0f 1e fa          	endbr64
    6204:	41 54                	push   r12
    6206:	55                   	push   rbp
    6207:	53                   	push   rbx
    6208:	48 89 fb             	mov    rbx,rdi
    620b:	e8 c0 bf ff ff       	call   21d0 <fileno@plt>
    6210:	48 89 df             	mov    rdi,rbx
    6213:	85 c0                	test   eax,eax
    6215:	78 58                	js     626f <error_at_line@@Base+0x3c54>
    6217:	e8 04 c0 ff ff       	call   2220 <__freading@plt>
    621c:	85 c0                	test   eax,eax
    621e:	75 30                	jne    6250 <error_at_line@@Base+0x3c35>
    6220:	48 89 df             	mov    rdi,rbx
    6223:	e8 68 00 00 00       	call   6290 <error_at_line@@Base+0x3c75>
    6228:	85 c0                	test   eax,eax
    622a:	74 40                	je     626c <error_at_line@@Base+0x3c51>
    622c:	e8 2f be ff ff       	call   2060 <__errno_location@plt>
    6231:	48 89 df             	mov    rdi,rbx
    6234:	44 8b 20             	mov    r12d,DWORD PTR [rax]
    6237:	48 89 c5             	mov    rbp,rax
    623a:	e8 81 be ff ff       	call   20c0 <fclose@plt>
    623f:	45 85 e4             	test   r12d,r12d
    6242:	75 3c                	jne    6280 <error_at_line@@Base+0x3c65>
    6244:	5b                   	pop    rbx
    6245:	5d                   	pop    rbp
    6246:	41 5c                	pop    r12
    6248:	c3                   	ret
    6249:	0f 1f 80 00 00 00 00 	nop    DWORD PTR [rax+0x0]
    6250:	48 89 df             	mov    rdi,rbx
    6253:	e8 78 bf ff ff       	call   21d0 <fileno@plt>
    6258:	31 f6                	xor    esi,esi
    625a:	ba 01 00 00 00       	mov    edx,0x1
    625f:	89 c7                	mov    edi,eax
    6261:	e8 da be ff ff       	call   2140 <lseek@plt>
    6266:	48 83 f8 ff          	cmp    rax,0xffffffffffffffff
    626a:	75 b4                	jne    6220 <error_at_line@@Base+0x3c05>
    626c:	48 89 df             	mov    rdi,rbx
    626f:	5b                   	pop    rbx
    6270:	5d                   	pop    rbp
    6271:	41 5c                	pop    r12
    6273:	e9 48 be ff ff       	jmp    20c0 <fclose@plt>
    6278:	0f 1f 84 00 00 00 00 	nop    DWORD PTR [rax+rax*1+0x0]
    627f:	00 
    6280:	44 89 65 00          	mov    DWORD PTR [rbp+0x0],r12d
    6284:	b8 ff ff ff ff       	mov    eax,0xffffffff
    6289:	eb b9                	jmp    6244 <error_at_line@@Base+0x3c29>
    628b:	0f 1f 44 00 00       	nop    DWORD PTR [rax+rax*1+0x0]
    6290:	f3 0f 1e fa          	endbr64
    6294:	53                   	push   rbx
    6295:	48 89 fb             	mov    rbx,rdi
    6298:	48 85 ff             	test   rdi,rdi
    629b:	74 09                	je     62a6 <error_at_line@@Base+0x3c8b>
    629d:	e8 7e bf ff ff       	call   2220 <__freading@plt>
    62a2:	85 c0                	test   eax,eax
    62a4:	75 0a                	jne    62b0 <error_at_line@@Base+0x3c95>
    62a6:	48 89 df             	mov    rdi,rbx
    62a9:	5b                   	pop    rbx
    62aa:	e9 51 bf ff ff       	jmp    2200 <fflush@plt>
    62af:	90                   	nop
    62b0:	f6 43 01 01          	test   BYTE PTR [rbx+0x1],0x1
    62b4:	74 f0                	je     62a6 <error_at_line@@Base+0x3c8b>
    62b6:	48 89 df             	mov    rdi,rbx
    62b9:	ba 01 00 00 00       	mov    edx,0x1
    62be:	31 f6                	xor    esi,esi
    62c0:	e8 0b 00 00 00       	call   62d0 <error_at_line@@Base+0x3cb5>
    62c5:	48 89 df             	mov    rdi,rbx
    62c8:	5b                   	pop    rbx
    62c9:	e9 32 bf ff ff       	jmp    2200 <fflush@plt>
    62ce:	66 90                	xchg   ax,ax
    62d0:	f3 0f 1e fa          	endbr64
    62d4:	53                   	push   rbx
    62d5:	48 89 fb             	mov    rbx,rdi
    62d8:	48 83 ec 10          	sub    rsp,0x10
    62dc:	48 8b 47 08          	mov    rax,QWORD PTR [rdi+0x8]
    62e0:	48 39 47 10          	cmp    QWORD PTR [rdi+0x10],rax
    62e4:	74 12                	je     62f8 <error_at_line@@Base+0x3cdd>
    62e6:	48 83 c4 10          	add    rsp,0x10
    62ea:	48 89 df             	mov    rdi,rbx
    62ed:	5b                   	pop    rbx
    62ee:	e9 6d bf ff ff       	jmp    2260 <fseeko@plt>
    62f3:	0f 1f 44 00 00       	nop    DWORD PTR [rax+rax*1+0x0]
    62f8:	48 8b 47 20          	mov    rax,QWORD PTR [rdi+0x20]
    62fc:	48 39 47 28          	cmp    QWORD PTR [rdi+0x28],rax
    6300:	75 e4                	jne    62e6 <error_at_line@@Base+0x3ccb>
    6302:	48 83 7f 48 00       	cmp    QWORD PTR [rdi+0x48],0x0
    6307:	75 dd                	jne    62e6 <error_at_line@@Base+0x3ccb>
    6309:	89 54 24 0c          	mov    DWORD PTR [rsp+0xc],edx
    630d:	48 89 34 24          	mov    QWORD PTR [rsp],rsi
    6311:	e8 ba be ff ff       	call   21d0 <fileno@plt>
    6316:	8b 54 24 0c          	mov    edx,DWORD PTR [rsp+0xc]
    631a:	48 8b 34 24          	mov    rsi,QWORD PTR [rsp]
    631e:	89 c7                	mov    edi,eax
    6320:	e8 1b be ff ff       	call   2140 <lseek@plt>
    6325:	48 83 f8 ff          	cmp    rax,0xffffffffffffffff
    6329:	74 12                	je     633d <error_at_line@@Base+0x3d22>
    632b:	83 23 ef             	and    DWORD PTR [rbx],0xffffffef
    632e:	48 89 83 90 00 00 00 	mov    QWORD PTR [rbx+0x90],rax
    6335:	31 c0                	xor    eax,eax
    6337:	48 83 c4 10          	add    rsp,0x10
    633b:	5b                   	pop    rbx
    633c:	c3                   	ret
    633d:	83 c8 ff             	or     eax,0xffffffff
    6340:	eb f5                	jmp    6337 <error_at_line@@Base+0x3d1c>
    6342:	66 2e 0f 1f 84 00 00 	cs nop WORD PTR [rax+rax*1+0x0]
    6349:	00 00 00 
    634c:	0f 1f 40 00          	nop    DWORD PTR [rax+0x0]
    6350:	f3 0f 1e fa          	endbr64
    6354:	48 83 ec 08          	sub    rsp,0x8
    6358:	bf 0e 00 00 00       	mov    edi,0xe
    635d:	e8 ee 00 00 00       	call   6450 <error_at_line@@Base+0x3e35>
    6362:	48 85 c0             	test   rax,rax
    6365:	74 19                	je     6380 <error_at_line@@Base+0x3d65>
    6367:	80 38 00             	cmp    BYTE PTR [rax],0x0
    636a:	48 8d 15 09 0f 00 00 	lea    rdx,[rip+0xf09]        # 727a <error_at_line@@Base+0x4c5f>
    6371:	48 0f 44 c2          	cmove  rax,rdx
    6375:	48 83 c4 08          	add    rsp,0x8
    6379:	c3                   	ret
    637a:	66 0f 1f 44 00 00    	nop    WORD PTR [rax+rax*1+0x0]
    6380:	48 8d 05 f3 0e 00 00 	lea    rax,[rip+0xef3]        # 727a <error_at_line@@Base+0x4c5f>
    6387:	48 83 c4 08          	add    rsp,0x8
    638b:	c3                   	ret
    638c:	0f 1f 40 00          	nop    DWORD PTR [rax+0x0]
    6390:	f3 0f 1e fa          	endbr64
    6394:	41 56                	push   r14
    6396:	41 be 01 00 00 00    	mov    r14d,0x1
    639c:	41 55                	push   r13
    639e:	45 31 ed             	xor    r13d,r13d
    63a1:	41 54                	push   r12
    63a3:	4c 8d 25 72 0c 00 00 	lea    r12,[rip+0xc72]        # 701c <error_at_line@@Base+0x4a01>
    63aa:	55                   	push   rbp
    63ab:	53                   	push   rbx
    63ac:	48 89 cb             	mov    rbx,rcx
    63af:	48 85 f6             	test   rsi,rsi
    63b2:	74 09                	je     63bd <error_at_line@@Base+0x3da2>
    63b4:	49 89 fd             	mov    r13,rdi
    63b7:	49 89 f4             	mov    r12,rsi
    63ba:	49 89 d6             	mov    r14,rdx
    63bd:	48 85 db             	test   rbx,rbx
    63c0:	48 8d 05 71 3e 00 00 	lea    rax,[rip+0x3e71]        # a238 <error_print_progname@@Base+0x170>
    63c7:	4c 89 f2             	mov    rdx,r14
    63ca:	4c 89 e6             	mov    rsi,r12
    63cd:	48 0f 44 d8          	cmove  rbx,rax
    63d1:	4c 89 ef             	mov    rdi,r13
    63d4:	48 89 d9             	mov    rcx,rbx
    63d7:	e8 84 bd ff ff       	call   2160 <mbrtoc32@plt>
    63dc:	48 89 c5             	mov    rbp,rax
    63df:	48 83 f8 fc          	cmp    rax,0xfffffffffffffffc
    63e3:	77 1b                	ja     6400 <error_at_line@@Base+0x3de5>
    63e5:	48 89 df             	mov    rdi,rbx
    63e8:	e8 d3 be ff ff       	call   22c0 <mbsinit@plt>
    63ed:	85 c0                	test   eax,eax
    63ef:	74 3f                	je     6430 <error_at_line@@Base+0x3e15>
    63f1:	5b                   	pop    rbx
    63f2:	48 89 e8             	mov    rax,rbp
    63f5:	5d                   	pop    rbp
    63f6:	41 5c                	pop    r12
    63f8:	41 5d                	pop    r13
    63fa:	41 5e                	pop    r14
    63fc:	c3                   	ret
    63fd:	0f 1f 00             	nop    DWORD PTR [rax]
    6400:	48 83 f8 fd          	cmp    rax,0xfffffffffffffffd
    6404:	0f 84 f4 c2 ff ff    	je     26fe <error_at_line@@Base+0xe3>
    640a:	4d 85 f6             	test   r14,r14
    640d:	74 e2                	je     63f1 <error_at_line@@Base+0x3dd6>
    640f:	31 ff                	xor    edi,edi
    6411:	e8 7a 00 00 00       	call   6490 <error_at_line@@Base+0x3e75>
    6416:	84 c0                	test   al,al
    6418:	75 d7                	jne    63f1 <error_at_line@@Base+0x3dd6>
    641a:	4d 85 ed             	test   r13,r13
    641d:	74 09                	je     6428 <error_at_line@@Base+0x3e0d>
    641f:	41 0f b6 04 24       	movzx  eax,BYTE PTR [r12]
    6424:	41 89 45 00          	mov    DWORD PTR [r13+0x0],eax
    6428:	bd 01 00 00 00       	mov    ebp,0x1
    642d:	eb c2                	jmp    63f1 <error_at_line@@Base+0x3dd6>
    642f:	90                   	nop
    6430:	48 c7 03 00 00 00 00 	mov    QWORD PTR [rbx],0x0
    6437:	48 89 e8             	mov    rax,rbp
    643a:	5b                   	pop    rbx
    643b:	5d                   	pop    rbp
    643c:	41 5c                	pop    r12
    643e:	41 5d                	pop    r13
    6440:	41 5e                	pop    r14
    6442:	c3                   	ret
    6443:	66 2e 0f 1f 84 00 00 	cs nop WORD PTR [rax+rax*1+0x0]
    644a:	00 00 00 
    644d:	0f 1f 00             	nop    DWORD PTR [rax]
    6450:	f3 0f 1e fa          	endbr64
    6454:	e9 b7 bd ff ff       	jmp    2210 <nl_langinfo@plt>
    6459:	0f 1f 80 00 00 00 00 	nop    DWORD PTR [rax+0x0]
    6460:	f3 0f 1e fa          	endbr64
    6464:	48 89 f0             	mov    rax,rsi
    6467:	48 f7 e2             	mul    rdx
    646a:	70 14                	jo     6480 <error_at_line@@Base+0x3e65>
    646c:	48 89 c6             	mov    rsi,rax
    646f:	48 85 c0             	test   rax,rax
    6472:	b8 01 00 00 00       	mov    eax,0x1
    6477:	48 0f 44 f0          	cmove  rsi,rax
    647b:	e9 b0 bd ff ff       	jmp    2230 <realloc@plt>
    6480:	50                   	push   rax
    6481:	e8 da bb ff ff       	call   2060 <__errno_location@plt>
    6486:	c7 00 0c 00 00 00    	mov    DWORD PTR [rax],0xc
    648c:	31 c0                	xor    eax,eax
    648e:	5a                   	pop    rdx
    648f:	c3                   	ret
    6490:	f3 0f 1e fa          	endbr64
    6494:	48 81 ec 18 01 00 00 	sub    rsp,0x118
    649b:	ba 01 01 00 00       	mov    edx,0x101
    64a0:	64 48 8b 34 25 28 00 	mov    rsi,QWORD PTR fs:0x28
    64a7:	00 00 
    64a9:	48 89 b4 24 08 01 00 	mov    QWORD PTR [rsp+0x108],rsi
    64b0:	00 
    64b1:	48 89 e6             	mov    rsi,rsp
    64b4:	e8 57 00 00 00       	call   6510 <error_at_line@@Base+0x3ef5>
    64b9:	89 c2                	mov    edx,eax
    64bb:	31 c0                	xor    eax,eax
    64bd:	85 d2                	test   edx,edx
    64bf:	75 15                	jne    64d6 <error_at_line@@Base+0x3ebb>
    64c1:	66 83 3c 24 43       	cmp    WORD PTR [rsp],0x43
    64c6:	74 0e                	je     64d6 <error_at_line@@Base+0x3ebb>
    64c8:	81 3c 24 50 4f 53 49 	cmp    DWORD PTR [rsp],0x49534f50
    64cf:	74 27                	je     64f8 <error_at_line@@Base+0x3edd>
    64d1:	b8 01 00 00 00       	mov    eax,0x1
    64d6:	48 8b 94 24 08 01 00 	mov    rdx,QWORD PTR [rsp+0x108]
    64dd:	00 
    64de:	64 48 2b 14 25 28 00 	sub    rdx,QWORD PTR fs:0x28
    64e5:	00 00 
    64e7:	75 1b                	jne    6504 <error_at_line@@Base+0x3ee9>
    64e9:	48 81 c4 18 01 00 00 	add    rsp,0x118
    64f0:	c3                   	ret
    64f1:	0f 1f 80 00 00 00 00 	nop    DWORD PTR [rax+0x0]
    64f8:	31 c0                	xor    eax,eax
    64fa:	66 83 7c 24 04 58    	cmp    WORD PTR [rsp+0x4],0x58
    6500:	75 cf                	jne    64d1 <error_at_line@@Base+0x3eb6>
    6502:	eb d2                	jmp    64d6 <error_at_line@@Base+0x3ebb>
    6504:	e8 07 bc ff ff       	call   2110 <__stack_chk_fail@plt>
    6509:	0f 1f 80 00 00 00 00 	nop    DWORD PTR [rax+0x0]
    6510:	f3 0f 1e fa          	endbr64
    6514:	e9 27 00 00 00       	jmp    6540 <error_at_line@@Base+0x3f25>
    6519:	0f 1f 80 00 00 00 00 	nop    DWORD PTR [rax+0x0]
    6520:	f3 0f 1e fa          	endbr64
    6524:	e9 07 00 00 00       	jmp    6530 <error_at_line@@Base+0x3f15>
    6529:	0f 1f 80 00 00 00 00 	nop    DWORD PTR [rax+0x0]
    6530:	f3 0f 1e fa          	endbr64
    6534:	31 f6                	xor    esi,esi
    6536:	e9 05 bd ff ff       	jmp    2240 <setlocale@plt>
    653b:	0f 1f 44 00 00       	nop    DWORD PTR [rax+rax*1+0x0]
    6540:	f3 0f 1e fa          	endbr64
    6544:	41 54                	push   r12
    6546:	49 89 d4             	mov    r12,rdx
    6549:	55                   	push   rbp
    654a:	48 89 f5             	mov    rbp,rsi
    654d:	31 f6                	xor    esi,esi
    654f:	53                   	push   rbx
    6550:	e8 eb bc ff ff       	call   2240 <setlocale@plt>
    6555:	48 85 c0             	test   rax,rax
    6558:	74 66                	je     65c0 <error_at_line@@Base+0x3fa5>
    655a:	48 89 c7             	mov    rdi,rax
    655d:	48 89 c3             	mov    rbx,rax
    6560:	e8 9b bb ff ff       	call   2100 <strlen@plt>
    6565:	4c 39 e0             	cmp    rax,r12
    6568:	72 16                	jb     6580 <error_at_line@@Base+0x3f65>
    656a:	4d 85 e4             	test   r12,r12
    656d:	75 31                	jne    65a0 <error_at_line@@Base+0x3f85>
    656f:	b8 22 00 00 00       	mov    eax,0x22
    6574:	5b                   	pop    rbx
    6575:	5d                   	pop    rbp
    6576:	41 5c                	pop    r12
    6578:	c3                   	ret
    6579:	0f 1f 80 00 00 00 00 	nop    DWORD PTR [rax+0x0]
    6580:	48 89 de             	mov    rsi,rbx
    6583:	48 89 ef             	mov    rdi,rbp
    6586:	48 8d 50 01          	lea    rdx,[rax+0x1]
    658a:	e8 31 bc ff ff       	call   21c0 <memcpy@plt>
    658f:	5b                   	pop    rbx
    6590:	31 c0                	xor    eax,eax
    6592:	5d                   	pop    rbp
    6593:	41 5c                	pop    r12
    6595:	c3                   	ret
    6596:	66 2e 0f 1f 84 00 00 	cs nop WORD PTR [rax+rax*1+0x0]
    659d:	00 00 00 
    65a0:	49 8d 54 24 ff       	lea    rdx,[r12-0x1]
    65a5:	48 89 de             	mov    rsi,rbx
    65a8:	48 89 ef             	mov    rdi,rbp
    65ab:	e8 10 bc ff ff       	call   21c0 <memcpy@plt>
    65b0:	42 c6 44 25 ff 00    	mov    BYTE PTR [rbp+r12*1-0x1],0x0
    65b6:	eb b7                	jmp    656f <error_at_line@@Base+0x3f54>
    65b8:	0f 1f 84 00 00 00 00 	nop    DWORD PTR [rax+rax*1+0x0]
    65bf:	00 
    65c0:	4d 85 e4             	test   r12,r12
    65c3:	74 04                	je     65c9 <error_at_line@@Base+0x3fae>
    65c5:	c6 45 00 00          	mov    BYTE PTR [rbp+0x0],0x0
    65c9:	b8 16 00 00 00       	mov    eax,0x16
    65ce:	eb a4                	jmp    6574 <error_at_line@@Base+0x3f59>
    65d0:	48 8b 15 31 3a 00 00 	mov    rdx,QWORD PTR [rip+0x3a31]        # a008 <error_at_line@@Base+0x79ed>
    65d7:	31 f6                	xor    esi,esi
    65d9:	e9 92 bc ff ff       	jmp    2270 <__cxa_atexit@plt>

Disassembly of section .fini:

00000000000065e0 <.fini>:
    65e0:	48 83 ec 08          	sub    rsp,0x8
    65e4:	48 83 c4 08          	add    rsp,0x8
    65e8:	c3                   	ret
